   1               		.file	"Proj_3E.c"
   2               	__SP_H__ = 0x3e
   3               	__SP_L__ = 0x3d
   4               	__SREG__ = 0x3f
   5               	__tmp_reg__ = 0
   6               	__zero_reg__ = 1
   7               		.text
   8               	.Ltext0:
   9               		.cfi_sections	.debug_frame
  10               	.global	USART_init
  12               	USART_init:
  13               	.LFB3:
  14               		.file 1 "../../../Resources_V12/Subroutines/Basic_HW_plus_Timer.c"
   1:../../../Resources_V12/Subroutines/Basic_HW_plus_Timer.c **** void USART_init (unsigned char, unsigned char);
   2:../../../Resources_V12/Subroutines/Basic_HW_plus_Timer.c **** void nop_delay(int);
   3:../../../Resources_V12/Subroutines/Basic_HW_plus_Timer.c **** void Timer_T0_10mS_delay_x_m(int);
   4:../../../Resources_V12/Subroutines/Basic_HW_plus_Timer.c **** void Timer_T0_sub(char, unsigned char);
   5:../../../Resources_V12/Subroutines/Basic_HW_plus_Timer.c **** void Timer_T0_sub_with_interrupt(char, unsigned char);
   6:../../../Resources_V12/Subroutines/Basic_HW_plus_Timer.c **** void T1_65ms_clock_tick(void);
   7:../../../Resources_V12/Subroutines/Basic_HW_plus_Timer.c **** void Timer_T1_sub_with_interrupt(char, unsigned int);
   8:../../../Resources_V12/Subroutines/Basic_HW_plus_Timer.c **** void Timer_T1_sub(char, unsigned int);
   9:../../../Resources_V12/Subroutines/Basic_HW_plus_Timer.c **** void Timer_T2_sub(char, char);
  10:../../../Resources_V12/Subroutines/Basic_HW_plus_Timer.c **** void sendChar(char);
  11:../../../Resources_V12/Subroutines/Basic_HW_plus_Timer.c **** void sendString(char*);
  12:../../../Resources_V12/Subroutines/Basic_HW_plus_Timer.c **** 
  13:../../../Resources_V12/Subroutines/Basic_HW_plus_Timer.c **** /*********************************************************************/
  14:../../../Resources_V12/Subroutines/Basic_HW_plus_Timer.c **** void USART_init (unsigned char UBRROH_N, unsigned char UBRR0L_N ){
  15               		.loc 1 14 0
  16               		.cfi_startproc
  17               	.LVL0:
  18               	/* prologue: function */
  19               	/* frame size = 0 */
  20               	/* stack size = 0 */
  21               	.L__stack_usage = 0
  15:../../../Resources_V12/Subroutines/Basic_HW_plus_Timer.c **** //Timer_T1_sub(T1_delay_10ms);
  16:../../../Resources_V12/Subroutines/Basic_HW_plus_Timer.c **** UCSR0B = 0;
  22               		.loc 1 16 0
  23 0000 E1EC      		ldi r30,lo8(-63)
  24 0002 F0E0      		ldi r31,0
  25 0004 1082      		st Z,__zero_reg__
  17:../../../Resources_V12/Subroutines/Basic_HW_plus_Timer.c **** UBRR0H = UBRROH_N;  									
  26               		.loc 1 17 0
  27 0006 8093 C500 		sts 197,r24
  18:../../../Resources_V12/Subroutines/Basic_HW_plus_Timer.c **** UBRR0L = UBRR0L_N;  								
  28               		.loc 1 18 0
  29 000a 6093 C400 		sts 196,r22
  19:../../../Resources_V12/Subroutines/Basic_HW_plus_Timer.c **** UCSR0A = (1 << U2X0);
  30               		.loc 1 19 0
  31 000e 82E0      		ldi r24,lo8(2)
  32               	.LVL1:
  33 0010 8093 C000 		sts 192,r24
  20:../../../Resources_V12/Subroutines/Basic_HW_plus_Timer.c **** UCSR0B = (1 << RXEN0) | (1<< TXEN0);
  34               		.loc 1 20 0
  35 0014 88E1      		ldi r24,lo8(24)
  36 0016 8083      		st Z,r24
  21:../../../Resources_V12/Subroutines/Basic_HW_plus_Timer.c **** UCSR0C =  (1 << UCSZ00)| (1 << UCSZ01);}
  37               		.loc 1 21 0
  38 0018 86E0      		ldi r24,lo8(6)
  39 001a 8093 C200 		sts 194,r24
  40 001e 0895      		ret
  41               		.cfi_endproc
  42               	.LFE3:
  44               	.global	nop_delay
  46               	nop_delay:
  47               	.LFB4:
  22:../../../Resources_V12/Subroutines/Basic_HW_plus_Timer.c **** 
  23:../../../Resources_V12/Subroutines/Basic_HW_plus_Timer.c **** /*********************************************************************/
  24:../../../Resources_V12/Subroutines/Basic_HW_plus_Timer.c **** void nop_delay(int nop_counter){for(int q = 0; q<= nop_counter; q++) {asm("nop");}}
  48               		.loc 1 24 0
  49               		.cfi_startproc
  50               	.LVL2:
  51               	/* prologue: function */
  52               	/* frame size = 0 */
  53               	/* stack size = 0 */
  54               	.L__stack_usage = 0
  55               	.LBB34:
  56               		.loc 1 24 0
  57 0020 20E0      		ldi r18,0
  58 0022 30E0      		ldi r19,0
  59               	.LVL3:
  60               	.L3:
  61               		.loc 1 24 0 is_stmt 0 discriminator 1
  62 0024 8217      		cp r24,r18
  63 0026 9307      		cpc r25,r19
  64 0028 04F0      		brlt .L6
  65               		.loc 1 24 0 discriminator 3
  66               	/* #APP */
  67               	 ;  24 "../../../Resources_V12/Subroutines/Basic_HW_plus_Timer.c" 1
  68 002a 0000      		nop
  69               	 ;  0 "" 2
  70               	/* #NOAPP */
  71 002c 2F5F      		subi r18,-1
  72 002e 3F4F      		sbci r19,-1
  73               	.LVL4:
  74 0030 00C0      		rjmp .L3
  75               	.L6:
  76               	/* epilogue start */
  77               	.LBE34:
  78               		.loc 1 24 0
  79 0032 0895      		ret
  80               		.cfi_endproc
  81               	.LFE4:
  83               	.global	Timer_T0_sub
  85               	Timer_T0_sub:
  86               	.LFB6:
  25:../../../Resources_V12/Subroutines/Basic_HW_plus_Timer.c **** 
  26:../../../Resources_V12/Subroutines/Basic_HW_plus_Timer.c **** /*********************************************************************/
  27:../../../Resources_V12/Subroutines/Basic_HW_plus_Timer.c **** void Timer_T0_10mS_delay_x_m(int m)
  28:../../../Resources_V12/Subroutines/Basic_HW_plus_Timer.c **** {for (int n = 0; n < m; n++){Timer_T0_sub(T0_delay_10ms);}}
  29:../../../Resources_V12/Subroutines/Basic_HW_plus_Timer.c **** 
  30:../../../Resources_V12/Subroutines/Basic_HW_plus_Timer.c **** /*********************************************************************/
  31:../../../Resources_V12/Subroutines/Basic_HW_plus_Timer.c **** void Timer_T0_sub(char Counter_speed, unsigned char Start_point){ 
  87               		.loc 1 31 0 is_stmt 1
  88               		.cfi_startproc
  89               	.LVL5:
  90               	/* prologue: function */
  91               	/* frame size = 0 */
  92               	/* stack size = 0 */
  93               	.L__stack_usage = 0
  32:../../../Resources_V12/Subroutines/Basic_HW_plus_Timer.c **** TCNT0 = Start_point;
  94               		.loc 1 32 0
  95 0034 66BD      		out 0x26,r22
  33:../../../Resources_V12/Subroutines/Basic_HW_plus_Timer.c **** TCCR0B = Counter_speed;
  96               		.loc 1 33 0
  97 0036 85BD      		out 0x25,r24
  98               	.L8:
  34:../../../Resources_V12/Subroutines/Basic_HW_plus_Timer.c **** while(!(TIFR0 & (1<<TOV0)));
  99               		.loc 1 34 0 discriminator 1
 100 0038 A89B      		sbis 0x15,0
 101 003a 00C0      		rjmp .L8
  35:../../../Resources_V12/Subroutines/Basic_HW_plus_Timer.c **** TIFR0 |= (1<<TOV0); TCCR0B = 0;}
 102               		.loc 1 35 0
 103 003c A89A      		sbi 0x15,0
 104 003e 15BC      		out 0x25,__zero_reg__
 105 0040 0895      		ret
 106               		.cfi_endproc
 107               	.LFE6:
 109               	.global	Timer_T0_10mS_delay_x_m
 111               	Timer_T0_10mS_delay_x_m:
 112               	.LFB5:
  28:../../../Resources_V12/Subroutines/Basic_HW_plus_Timer.c **** 
 113               		.loc 1 28 0
 114               		.cfi_startproc
 115               	.LVL6:
 116 0042 0F93      		push r16
 117               	.LCFI0:
 118               		.cfi_def_cfa_offset 3
 119               		.cfi_offset 16, -2
 120 0044 1F93      		push r17
 121               	.LCFI1:
 122               		.cfi_def_cfa_offset 4
 123               		.cfi_offset 17, -3
 124 0046 CF93      		push r28
 125               	.LCFI2:
 126               		.cfi_def_cfa_offset 5
 127               		.cfi_offset 28, -4
 128 0048 DF93      		push r29
 129               	.LCFI3:
 130               		.cfi_def_cfa_offset 6
 131               		.cfi_offset 29, -5
 132               	/* prologue: function */
 133               	/* frame size = 0 */
 134               	/* stack size = 4 */
 135               	.L__stack_usage = 4
 136 004a 8C01      		movw r16,r24
 137               	.LVL7:
 138               	.LBB35:
  28:../../../Resources_V12/Subroutines/Basic_HW_plus_Timer.c **** 
 139               		.loc 1 28 0
 140 004c C0E0      		ldi r28,0
 141 004e D0E0      		ldi r29,0
 142               	.LVL8:
 143               	.L12:
  28:../../../Resources_V12/Subroutines/Basic_HW_plus_Timer.c **** 
 144               		.loc 1 28 0 is_stmt 0 discriminator 1
 145 0050 C017      		cp r28,r16
 146 0052 D107      		cpc r29,r17
 147 0054 04F4      		brge .L14
  28:../../../Resources_V12/Subroutines/Basic_HW_plus_Timer.c **** 
 148               		.loc 1 28 0 discriminator 3
 149 0056 62EB      		ldi r22,lo8(-78)
 150 0058 85E0      		ldi r24,lo8(5)
 151 005a 0E94 0000 		call Timer_T0_sub
 152               	.LVL9:
 153 005e 2196      		adiw r28,1
 154               	.LVL10:
 155 0060 00C0      		rjmp .L12
 156               	.L14:
 157               	/* epilogue start */
 158               	.LBE35:
  28:../../../Resources_V12/Subroutines/Basic_HW_plus_Timer.c **** 
 159               		.loc 1 28 0
 160 0062 DF91      		pop r29
 161 0064 CF91      		pop r28
 162               	.LVL11:
 163 0066 1F91      		pop r17
 164 0068 0F91      		pop r16
 165               	.LVL12:
 166 006a 0895      		ret
 167               		.cfi_endproc
 168               	.LFE5:
 170               	.global	Timer_T0_sub_with_interrupt
 172               	Timer_T0_sub_with_interrupt:
 173               	.LFB7:
  36:../../../Resources_V12/Subroutines/Basic_HW_plus_Timer.c **** 
  37:../../../Resources_V12/Subroutines/Basic_HW_plus_Timer.c **** 
  38:../../../Resources_V12/Subroutines/Basic_HW_plus_Timer.c **** /*********************************************************************/
  39:../../../Resources_V12/Subroutines/Basic_HW_plus_Timer.c **** void Timer_T0_sub_with_interrupt(char Counter_speed, unsigned char Start_point){ 
 174               		.loc 1 39 0 is_stmt 1
 175               		.cfi_startproc
 176               	.LVL13:
 177               	/* prologue: function */
 178               	/* frame size = 0 */
 179               	/* stack size = 0 */
 180               	.L__stack_usage = 0
  40:../../../Resources_V12/Subroutines/Basic_HW_plus_Timer.c **** TIMSK0 |= (1 << TOIE0);
 181               		.loc 1 40 0
 182 006c EEE6      		ldi r30,lo8(110)
 183 006e F0E0      		ldi r31,0
 184 0070 9081      		ld r25,Z
 185 0072 9160      		ori r25,lo8(1)
 186 0074 9083      		st Z,r25
  41:../../../Resources_V12/Subroutines/Basic_HW_plus_Timer.c **** TCNT0 = Start_point;
 187               		.loc 1 41 0
 188 0076 66BD      		out 0x26,r22
  42:../../../Resources_V12/Subroutines/Basic_HW_plus_Timer.c **** TCCR0B = Counter_speed;}
 189               		.loc 1 42 0
 190 0078 85BD      		out 0x25,r24
 191 007a 0895      		ret
 192               		.cfi_endproc
 193               	.LFE7:
 195               	.global	T1_65ms_clock_tick
 197               	T1_65ms_clock_tick:
 198               	.LFB8:
  43:../../../Resources_V12/Subroutines/Basic_HW_plus_Timer.c **** 
  44:../../../Resources_V12/Subroutines/Basic_HW_plus_Timer.c **** 
  45:../../../Resources_V12/Subroutines/Basic_HW_plus_Timer.c **** /*********************************************************************/
  46:../../../Resources_V12/Subroutines/Basic_HW_plus_Timer.c **** void T1_65ms_clock_tick(void){ 
 199               		.loc 1 46 0
 200               		.cfi_startproc
 201               	/* prologue: function */
 202               	/* frame size = 0 */
 203               	/* stack size = 0 */
 204               	.L__stack_usage = 0
  47:../../../Resources_V12/Subroutines/Basic_HW_plus_Timer.c **** TIMSK1 |= (1 << TOIE1);TCCR1B = 0x02;}
 205               		.loc 1 47 0
 206 007c EFE6      		ldi r30,lo8(111)
 207 007e F0E0      		ldi r31,0
 208 0080 8081      		ld r24,Z
 209 0082 8160      		ori r24,lo8(1)
 210 0084 8083      		st Z,r24
 211 0086 82E0      		ldi r24,lo8(2)
 212 0088 8093 8100 		sts 129,r24
 213 008c 0895      		ret
 214               		.cfi_endproc
 215               	.LFE8:
 217               	.global	Timer_T1_sub
 219               	Timer_T1_sub:
 220               	.LFB9:
  48:../../../Resources_V12/Subroutines/Basic_HW_plus_Timer.c **** 
  49:../../../Resources_V12/Subroutines/Basic_HW_plus_Timer.c **** /*********************************************************************/
  50:../../../Resources_V12/Subroutines/Basic_HW_plus_Timer.c **** void Timer_T1_sub(char Counter_speed, unsigned int Start_point){ 
 221               		.loc 1 50 0
 222               		.cfi_startproc
 223               	.LVL14:
 224               	/* prologue: function */
 225               	/* frame size = 0 */
 226               	/* stack size = 0 */
 227               	.L__stack_usage = 0
  51:../../../Resources_V12/Subroutines/Basic_HW_plus_Timer.c **** TCNT1H = (Start_point >> 8);
 228               		.loc 1 51 0
 229 008e 7093 8500 		sts 133,r23
  52:../../../Resources_V12/Subroutines/Basic_HW_plus_Timer.c **** TCNT1L = Start_point & 0x00FF;
 230               		.loc 1 52 0
 231 0092 6093 8400 		sts 132,r22
  53:../../../Resources_V12/Subroutines/Basic_HW_plus_Timer.c **** TIFR1 = 0xFF;
 232               		.loc 1 53 0
 233 0096 9FEF      		ldi r25,lo8(-1)
 234 0098 96BB      		out 0x16,r25
  54:../../../Resources_V12/Subroutines/Basic_HW_plus_Timer.c **** TCCR1B = Counter_speed;
 235               		.loc 1 54 0
 236 009a 8093 8100 		sts 129,r24
 237               	.L18:
  55:../../../Resources_V12/Subroutines/Basic_HW_plus_Timer.c **** while(!(TIFR1 & (1<<TOV1)));
 238               		.loc 1 55 0 discriminator 1
 239 009e B09B      		sbis 0x16,0
 240 00a0 00C0      		rjmp .L18
  56:../../../Resources_V12/Subroutines/Basic_HW_plus_Timer.c **** TIFR1 |= (1<<TOV1); 
 241               		.loc 1 56 0
 242 00a2 B09A      		sbi 0x16,0
  57:../../../Resources_V12/Subroutines/Basic_HW_plus_Timer.c **** TCCR1B = 0;}
 243               		.loc 1 57 0
 244 00a4 1092 8100 		sts 129,__zero_reg__
 245 00a8 0895      		ret
 246               		.cfi_endproc
 247               	.LFE9:
 249               	.global	Timer_T1_sub_with_interrupt
 251               	Timer_T1_sub_with_interrupt:
 252               	.LFB10:
  58:../../../Resources_V12/Subroutines/Basic_HW_plus_Timer.c **** 
  59:../../../Resources_V12/Subroutines/Basic_HW_plus_Timer.c **** /*********************************************************************/
  60:../../../Resources_V12/Subroutines/Basic_HW_plus_Timer.c **** void Timer_T1_sub_with_interrupt(char Counter_speed, unsigned int Start_point){ 
 253               		.loc 1 60 0
 254               		.cfi_startproc
 255               	.LVL15:
 256               	/* prologue: function */
 257               	/* frame size = 0 */
 258               	/* stack size = 0 */
 259               	.L__stack_usage = 0
  61:../../../Resources_V12/Subroutines/Basic_HW_plus_Timer.c **** TIMSK1 |= (1 << TOIE1);
 260               		.loc 1 61 0
 261 00aa EFE6      		ldi r30,lo8(111)
 262 00ac F0E0      		ldi r31,0
 263 00ae 9081      		ld r25,Z
 264 00b0 9160      		ori r25,lo8(1)
 265 00b2 9083      		st Z,r25
  62:../../../Resources_V12/Subroutines/Basic_HW_plus_Timer.c **** TCNT1H = (Start_point >> 8);
 266               		.loc 1 62 0
 267 00b4 7093 8500 		sts 133,r23
  63:../../../Resources_V12/Subroutines/Basic_HW_plus_Timer.c **** TCNT1L = Start_point & 0x00FF;
 268               		.loc 1 63 0
 269 00b8 6093 8400 		sts 132,r22
  64:../../../Resources_V12/Subroutines/Basic_HW_plus_Timer.c **** TCCR1B = Counter_speed;}
 270               		.loc 1 64 0
 271 00bc 8093 8100 		sts 129,r24
 272 00c0 0895      		ret
 273               		.cfi_endproc
 274               	.LFE10:
 276               	.global	Timer_T2_sub
 278               	Timer_T2_sub:
 279               	.LFB11:
  65:../../../Resources_V12/Subroutines/Basic_HW_plus_Timer.c **** 
  66:../../../Resources_V12/Subroutines/Basic_HW_plus_Timer.c **** 
  67:../../../Resources_V12/Subroutines/Basic_HW_plus_Timer.c **** /*********************************************************************/
  68:../../../Resources_V12/Subroutines/Basic_HW_plus_Timer.c **** void Timer_T2_sub(char Counter_speed, char Start_point){ 
 280               		.loc 1 68 0
 281               		.cfi_startproc
 282               	.LVL16:
 283               	/* prologue: function */
 284               	/* frame size = 0 */
 285               	/* stack size = 0 */
 286               	.L__stack_usage = 0
  69:../../../Resources_V12/Subroutines/Basic_HW_plus_Timer.c **** TCNT2 = (Start_point );
 287               		.loc 1 69 0
 288 00c2 6093 B200 		sts 178,r22
  70:../../../Resources_V12/Subroutines/Basic_HW_plus_Timer.c **** 
  71:../../../Resources_V12/Subroutines/Basic_HW_plus_Timer.c **** TCCR2B = Counter_speed;
 289               		.loc 1 71 0
 290 00c6 8093 B100 		sts 177,r24
 291               	.L23:
  72:../../../Resources_V12/Subroutines/Basic_HW_plus_Timer.c **** while(!(TIFR2 & (1<<TOV2)));
 292               		.loc 1 72 0 discriminator 1
 293 00ca B89B      		sbis 0x17,0
 294 00cc 00C0      		rjmp .L23
  73:../../../Resources_V12/Subroutines/Basic_HW_plus_Timer.c **** TIFR2 |= (1<<TOV2); 
 295               		.loc 1 73 0
 296 00ce B89A      		sbi 0x17,0
  74:../../../Resources_V12/Subroutines/Basic_HW_plus_Timer.c **** TCCR2B = 0;}
 297               		.loc 1 74 0
 298 00d0 1092 B100 		sts 177,__zero_reg__
 299 00d4 0895      		ret
 300               		.cfi_endproc
 301               	.LFE11:
 303               	.global	waitforchar
 305               	waitforchar:
 306               	.LFB35:
 307               		.file 2 "../../../Resources_V12/Subroutines/Basic_PC_comms.c"
   1:../../../Resources_V12/Subroutines/Basic_PC_comms.c **** 
   2:../../../Resources_V12/Subroutines/Basic_PC_comms.c **** void waitforchar(void);
   3:../../../Resources_V12/Subroutines/Basic_PC_comms.c **** char waitforkeypress(void);
   4:../../../Resources_V12/Subroutines/Basic_PC_comms.c **** char receiveChar(void);
   5:../../../Resources_V12/Subroutines/Basic_PC_comms.c **** char isCharavailable(char);
   6:../../../Resources_V12/Subroutines/Basic_PC_comms.c **** //char isCharWaiting(void);			//was isCharavailableNow
   7:../../../Resources_V12/Subroutines/Basic_PC_comms.c **** char wait_for_return_key(void);
   8:../../../Resources_V12/Subroutines/Basic_PC_comms.c **** void binUnwantedChars_dot (void);
   9:../../../Resources_V12/Subroutines/Basic_PC_comms.c **** void binUnwantedChars (void);
  10:../../../Resources_V12/Subroutines/Basic_PC_comms.c **** void Char_to_PC(char);
  11:../../../Resources_V12/Subroutines/Basic_PC_comms.c **** void String_to_PC(char*);
  12:../../../Resources_V12/Subroutines/Basic_PC_comms.c **** void newline(void);
  13:../../../Resources_V12/Subroutines/Basic_PC_comms.c **** 
  14:../../../Resources_V12/Subroutines/Basic_PC_comms.c **** void Num_to_PC(char, long);					//was sendLongNum()
  15:../../../Resources_V12/Subroutines/Basic_PC_comms.c **** void SBtoAL(char*, long, char);	
  16:../../../Resources_V12/Subroutines/Basic_PC_comms.c **** void NumericString_to_PC(char*);			//was sendNumericString
  17:../../../Resources_V12/Subroutines/Basic_PC_comms.c **** 
  18:../../../Resources_V12/Subroutines/Basic_PC_comms.c **** char decimal_digit (char);
  19:../../../Resources_V12/Subroutines/Basic_PC_comms.c **** char hex_digit (char);
  20:../../../Resources_V12/Subroutines/Basic_PC_comms.c **** void Exp_to_PC (signed char);
  21:../../../Resources_V12/Subroutines/Basic_PC_comms.c **** 
  22:../../../Resources_V12/Subroutines/Basic_PC_comms.c **** void Num_to_PC_U(char, unsigned long);		//was sendLongNumU()
  23:../../../Resources_V12/Subroutines/Basic_PC_comms.c **** void UBtoAL(char*, unsigned long, char);
  24:../../../Resources_V12/Subroutines/Basic_PC_comms.c **** 
  25:../../../Resources_V12/Subroutines/Basic_PC_comms.c **** 
  26:../../../Resources_V12/Subroutines/Basic_PC_comms.c **** 
  27:../../../Resources_V12/Subroutines/Basic_PC_comms.c **** /*********************************************************************/
  28:../../../Resources_V12/Subroutines/Basic_PC_comms.c **** void waitforchar(void){
 308               		.loc 2 28 0
 309               		.cfi_startproc
 310               	/* prologue: function */
 311               	/* frame size = 0 */
 312               	/* stack size = 0 */
 313               	.L__stack_usage = 0
 314               	.L27:
  29:../../../Resources_V12/Subroutines/Basic_PC_comms.c **** while (!(UCSR0A & (1 << RXC0)));}
 315               		.loc 2 29 0 discriminator 1
 316 00d6 8091 C000 		lds r24,192
 317 00da 87FF      		sbrs r24,7
 318 00dc 00C0      		rjmp .L27
 319               	/* epilogue start */
 320               		.loc 2 29 0 is_stmt 0
 321 00de 0895      		ret
 322               		.cfi_endproc
 323               	.LFE35:
 325               	.global	waitforkeypress
 327               	waitforkeypress:
 328               	.LFB36:
  30:../../../Resources_V12/Subroutines/Basic_PC_comms.c **** 
  31:../../../Resources_V12/Subroutines/Basic_PC_comms.c **** 
  32:../../../Resources_V12/Subroutines/Basic_PC_comms.c **** /*********************************************************************/
  33:../../../Resources_V12/Subroutines/Basic_PC_comms.c **** char waitforkeypress(void){
 329               		.loc 2 33 0 is_stmt 1
 330               		.cfi_startproc
 331               	/* prologue: function */
 332               	/* frame size = 0 */
 333               	/* stack size = 0 */
 334               	.L__stack_usage = 0
 335               	.L30:
  34:../../../Resources_V12/Subroutines/Basic_PC_comms.c **** while (!(UCSR0A & (1 << RXC0)));
 336               		.loc 2 34 0 discriminator 1
 337 00e0 8091 C000 		lds r24,192
 338 00e4 87FF      		sbrs r24,7
 339 00e6 00C0      		rjmp .L30
  35:../../../Resources_V12/Subroutines/Basic_PC_comms.c **** return UDR0;}
 340               		.loc 2 35 0
 341 00e8 8091 C600 		lds r24,198
 342 00ec 0895      		ret
 343               		.cfi_endproc
 344               	.LFE36:
 346               	.global	receiveChar
 348               	receiveChar:
 349               	.LFB37:
  36:../../../Resources_V12/Subroutines/Basic_PC_comms.c **** 
  37:../../../Resources_V12/Subroutines/Basic_PC_comms.c **** 
  38:../../../Resources_V12/Subroutines/Basic_PC_comms.c **** /*********************************************************************/
  39:../../../Resources_V12/Subroutines/Basic_PC_comms.c **** char receiveChar(void)
  40:../../../Resources_V12/Subroutines/Basic_PC_comms.c **** {return UDR0;}
 350               		.loc 2 40 0
 351               		.cfi_startproc
 352               	/* prologue: function */
 353               	/* frame size = 0 */
 354               	/* stack size = 0 */
 355               	.L__stack_usage = 0
 356               		.loc 2 40 0
 357 00ee 8091 C600 		lds r24,198
 358 00f2 0895      		ret
 359               		.cfi_endproc
 360               	.LFE37:
 362               	.global	isCharavailable
 364               	isCharavailable:
 365               	.LFB38:
  41:../../../Resources_V12/Subroutines/Basic_PC_comms.c **** 
  42:../../../Resources_V12/Subroutines/Basic_PC_comms.c **** 
  43:../../../Resources_V12/Subroutines/Basic_PC_comms.c **** /*********************************************************************/
  44:../../../Resources_V12/Subroutines/Basic_PC_comms.c **** char isCharavailable (char m){int n = 0;
 366               		.loc 2 44 0
 367               		.cfi_startproc
 368               	.LVL17:
 369               	/* prologue: function */
 370               	/* frame size = 0 */
 371               	/* stack size = 0 */
 372               	.L__stack_usage = 0
 373               		.loc 2 44 0
 374 00f4 20E0      		ldi r18,0
 375 00f6 30E0      		ldi r19,0
 376               	.LVL18:
 377               	.L34:
  45:../../../Resources_V12/Subroutines/Basic_PC_comms.c **** while (!(UCSR0A & (1 << RXC0))){n++;
 378               		.loc 2 45 0
 379 00f8 9091 C000 		lds r25,192
 380 00fc 97FD      		sbrc r25,7
 381 00fe 00C0      		rjmp .L39
 382               		.loc 2 45 0 is_stmt 0 discriminator 1
 383 0100 2F5F      		subi r18,-1
 384 0102 3F4F      		sbci r19,-1
 385               	.LVL19:
  46:../../../Resources_V12/Subroutines/Basic_PC_comms.c **** if (n>8000) {m--;n = 0;}if (m == 0)return 0;}
 386               		.loc 2 46 0 is_stmt 1 discriminator 1
 387 0104 2134      		cpi r18,65
 388 0106 9FE1      		ldi r25,31
 389 0108 3907      		cpc r19,r25
 390 010a 04F0      		brlt .L35
 391 010c 8150      		subi r24,lo8(-(-1))
 392               	.LVL20:
 393 010e 20E0      		ldi r18,0
 394 0110 30E0      		ldi r19,0
 395               	.LVL21:
 396               	.L35:
 397               		.loc 2 46 0 is_stmt 0 discriminator 3
 398 0112 8111      		cpse r24,__zero_reg__
 399 0114 00C0      		rjmp .L34
 400               		.loc 2 46 0
 401 0116 80E0      		ldi r24,0
 402               	.LVL22:
  47:../../../Resources_V12/Subroutines/Basic_PC_comms.c **** return 1;}
 403               		.loc 2 47 0 is_stmt 1
 404 0118 0895      		ret
 405               	.LVL23:
 406               	.L39:
 407 011a 81E0      		ldi r24,lo8(1)
 408               	.LVL24:
 409 011c 0895      		ret
 410               		.cfi_endproc
 411               	.LFE38:
 413               	.global	wait_for_return_key
 415               	wait_for_return_key:
 416               	.LFB39:
  48:../../../Resources_V12/Subroutines/Basic_PC_comms.c **** 
  49:../../../Resources_V12/Subroutines/Basic_PC_comms.c **** 
  50:../../../Resources_V12/Subroutines/Basic_PC_comms.c **** /*********************************************************************/
  51:../../../Resources_V12/Subroutines/Basic_PC_comms.c **** //char isCharWaiting(){
  52:../../../Resources_V12/Subroutines/Basic_PC_comms.c **** //if(UCSR0A & (1 << RXC0)) return 1;
  53:../../../Resources_V12/Subroutines/Basic_PC_comms.c **** //else return 0;}
  54:../../../Resources_V12/Subroutines/Basic_PC_comms.c **** 
  55:../../../Resources_V12/Subroutines/Basic_PC_comms.c **** 
  56:../../../Resources_V12/Subroutines/Basic_PC_comms.c **** /*********************************************************************/
  57:../../../Resources_V12/Subroutines/Basic_PC_comms.c **** 
  58:../../../Resources_V12/Subroutines/Basic_PC_comms.c **** char wait_for_return_key(void){	
 417               		.loc 2 58 0
 418               		.cfi_startproc
 419               	/* prologue: function */
 420               	/* frame size = 0 */
 421               	/* stack size = 0 */
 422               	.L__stack_usage = 0
  59:../../../Resources_V12/Subroutines/Basic_PC_comms.c **** char keypress;
  60:../../../Resources_V12/Subroutines/Basic_PC_comms.c **** keypress = waitforkeypress();
 423               		.loc 2 60 0
 424 011e 0E94 0000 		call waitforkeypress
 425               	.LVL25:
  61:../../../Resources_V12/Subroutines/Basic_PC_comms.c **** if((keypress == '\r') || (keypress == '\n')){
 426               		.loc 2 61 0
 427 0122 8D30      		cpi r24,lo8(13)
 428 0124 01F0      		breq .L41
 429               		.loc 2 61 0 is_stmt 0 discriminator 1
 430 0126 8A30      		cpi r24,lo8(10)
 431 0128 01F4      		brne .L42
 432               	.L41:
 433               	.LBB40:
 434               	.LBB41:
  62:../../../Resources_V12/Subroutines/Basic_PC_comms.c **** if (isCharavailable(1)){receiveChar();}keypress = '\r';}
 435               		.loc 2 62 0 is_stmt 1
 436 012a 81E0      		ldi r24,lo8(1)
 437               	.LVL26:
 438 012c 0E94 0000 		call isCharavailable
 439               	.LVL27:
 440 0130 8111      		cpse r24,__zero_reg__
 441               	.LBB42:
 442               	.LBB43:
  40:../../../Resources_V12/Subroutines/Basic_PC_comms.c **** 
 443               		.loc 2 40 0
 444 0132 8091 C600 		lds r24,198
 445               	.L43:
 446               	.LBE43:
 447               	.LBE42:
 448               		.loc 2 62 0
 449 0136 8DE0      		ldi r24,lo8(13)
 450               	.L42:
 451               	.LVL28:
 452               	.LBE41:
 453               	.LBE40:
  63:../../../Resources_V12/Subroutines/Basic_PC_comms.c **** return keypress;}
 454               		.loc 2 63 0
 455 0138 0895      		ret
 456               		.cfi_endproc
 457               	.LFE39:
 459               	.global	binUnwantedChars
 461               	binUnwantedChars:
 462               	.LFB41:
  64:../../../Resources_V12/Subroutines/Basic_PC_comms.c **** 
  65:../../../Resources_V12/Subroutines/Basic_PC_comms.c **** 
  66:../../../Resources_V12/Subroutines/Basic_PC_comms.c **** 
  67:../../../Resources_V12/Subroutines/Basic_PC_comms.c **** /*********************************************************************/
  68:../../../Resources_V12/Subroutines/Basic_PC_comms.c **** void binUnwantedChars_dot (void){
  69:../../../Resources_V12/Subroutines/Basic_PC_comms.c **** while(1){if (isCharavailable(5)==1){receiveChar();Char_to_PC('.');}else break;}newline();}
  70:../../../Resources_V12/Subroutines/Basic_PC_comms.c **** 
  71:../../../Resources_V12/Subroutines/Basic_PC_comms.c **** 
  72:../../../Resources_V12/Subroutines/Basic_PC_comms.c **** /*********************************************************************/
  73:../../../Resources_V12/Subroutines/Basic_PC_comms.c **** void binUnwantedChars (void){
 463               		.loc 2 73 0
 464               		.cfi_startproc
 465               	/* prologue: function */
 466               	/* frame size = 0 */
 467               	/* stack size = 0 */
 468               	.L__stack_usage = 0
 469               	.L49:
  74:../../../Resources_V12/Subroutines/Basic_PC_comms.c **** while(1){if (isCharavailable(5)==1)receiveChar();else break;}}
 470               		.loc 2 74 0 discriminator 3
 471 013a 85E0      		ldi r24,lo8(5)
 472 013c 0E94 0000 		call isCharavailable
 473               	.LVL29:
 474 0140 8130      		cpi r24,lo8(1)
 475 0142 01F4      		brne .L47
 476               	.LBB44:
 477               	.LBB45:
  40:../../../Resources_V12/Subroutines/Basic_PC_comms.c **** 
 478               		.loc 2 40 0
 479 0144 8091 C600 		lds r24,198
 480 0148 00C0      		rjmp .L49
 481               	.L47:
 482 014a 0895      		ret
 483               	.LBE45:
 484               	.LBE44:
 485               		.cfi_endproc
 486               	.LFE41:
 488               	.global	Char_to_PC
 490               	Char_to_PC:
 491               	.LFB42:
  75:../../../Resources_V12/Subroutines/Basic_PC_comms.c **** 
  76:../../../Resources_V12/Subroutines/Basic_PC_comms.c **** 
  77:../../../Resources_V12/Subroutines/Basic_PC_comms.c **** /*********************************************************************/
  78:../../../Resources_V12/Subroutines/Basic_PC_comms.c **** void Char_to_PC(char data){
 492               		.loc 2 78 0
 493               		.cfi_startproc
 494               	/* prologue: function */
 495               	/* frame size = 0 */
 496               	/* stack size = 0 */
 497               	.L__stack_usage = 0
 498               	.LVL30:
 499               	.L51:
  79:../../../Resources_V12/Subroutines/Basic_PC_comms.c **** while (!(UCSR0A & (1 << UDRE0)));
 500               		.loc 2 79 0 discriminator 1
 501 014c 9091 C000 		lds r25,192
 502 0150 95FF      		sbrs r25,5
 503 0152 00C0      		rjmp .L51
  80:../../../Resources_V12/Subroutines/Basic_PC_comms.c **** UDR0 = data;}
 504               		.loc 2 80 0
 505 0154 8093 C600 		sts 198,r24
 506 0158 0895      		ret
 507               		.cfi_endproc
 508               	.LFE42:
 510               	.global	String_to_PC
 512               	String_to_PC:
 513               	.LFB43:
  81:../../../Resources_V12/Subroutines/Basic_PC_comms.c **** 
  82:../../../Resources_V12/Subroutines/Basic_PC_comms.c **** /*********************************************************************/
  83:../../../Resources_V12/Subroutines/Basic_PC_comms.c **** void String_to_PC(char s[]){
 514               		.loc 2 83 0
 515               		.cfi_startproc
 516               	.LVL31:
 517 015a 0F93      		push r16
 518               	.LCFI4:
 519               		.cfi_def_cfa_offset 3
 520               		.cfi_offset 16, -2
 521 015c 1F93      		push r17
 522               	.LCFI5:
 523               		.cfi_def_cfa_offset 4
 524               		.cfi_offset 17, -3
 525 015e CF93      		push r28
 526               	.LCFI6:
 527               		.cfi_def_cfa_offset 5
 528               		.cfi_offset 28, -4
 529 0160 DF93      		push r29
 530               	.LCFI7:
 531               		.cfi_def_cfa_offset 6
 532               		.cfi_offset 29, -5
 533               	/* prologue: function */
 534               	/* frame size = 0 */
 535               	/* stack size = 4 */
 536               	.L__stack_usage = 4
 537 0162 EC01      		movw r28,r24
 538               	.LVL32:
 539 0164 8C01      		movw r16,r24
 540 0166 0853      		subi r16,56
 541 0168 1F4F      		sbci r17,-1
 542               	.LVL33:
 543               	.L56:
  84:../../../Resources_V12/Subroutines/Basic_PC_comms.c **** int i = 0;
  85:../../../Resources_V12/Subroutines/Basic_PC_comms.c **** while(i < 200){
  86:../../../Resources_V12/Subroutines/Basic_PC_comms.c **** if(s[i] == '\0') break;
 544               		.loc 2 86 0
 545 016a 8991      		ld r24,Y+
 546               	.LVL34:
 547 016c 8823      		tst r24
 548 016e 01F0      		breq .L54
 549               	.LVL35:
  87:../../../Resources_V12/Subroutines/Basic_PC_comms.c **** Char_to_PC(s[i++]);} }
 550               		.loc 2 87 0
 551 0170 0E94 0000 		call Char_to_PC
 552               	.LVL36:
  85:../../../Resources_V12/Subroutines/Basic_PC_comms.c **** if(s[i] == '\0') break;
 553               		.loc 2 85 0
 554 0174 C017      		cp r28,r16
 555 0176 D107      		cpc r29,r17
 556 0178 01F4      		brne .L56
 557               	.LVL37:
 558               	.L54:
 559               	/* epilogue start */
 560               		.loc 2 87 0
 561 017a DF91      		pop r29
 562 017c CF91      		pop r28
 563 017e 1F91      		pop r17
 564 0180 0F91      		pop r16
 565               	.LVL38:
 566 0182 0895      		ret
 567               		.cfi_endproc
 568               	.LFE43:
 570               		.section	.rodata.str1.1,"aMS",@progbits,1
 571               	.LC0:
 572 0000 0D0A 00   		.string	"\r\n"
 573               		.text
 574               	.global	newline
 576               	newline:
 577               	.LFB44:
  88:../../../Resources_V12/Subroutines/Basic_PC_comms.c **** 
  89:../../../Resources_V12/Subroutines/Basic_PC_comms.c **** /*********************************************************************/
  90:../../../Resources_V12/Subroutines/Basic_PC_comms.c **** void newline(void){String_to_PC ("\r\n");}
 578               		.loc 2 90 0
 579               		.cfi_startproc
 580               	/* prologue: function */
 581               	/* frame size = 0 */
 582               	/* stack size = 0 */
 583               	.L__stack_usage = 0
 584               		.loc 2 90 0
 585 0184 80E0      		ldi r24,lo8(.LC0)
 586 0186 90E0      		ldi r25,hi8(.LC0)
 587 0188 0C94 0000 		jmp String_to_PC
 588               	.LVL39:
 589               		.cfi_endproc
 590               	.LFE44:
 592               	.global	binUnwantedChars_dot
 594               	binUnwantedChars_dot:
 595               	.LFB40:
  68:../../../Resources_V12/Subroutines/Basic_PC_comms.c **** while(1){if (isCharavailable(5)==1){receiveChar();Char_to_PC('.');}else break;}newline();}
 596               		.loc 2 68 0
 597               		.cfi_startproc
 598               	/* prologue: function */
 599               	/* frame size = 0 */
 600               	/* stack size = 0 */
 601               	.L__stack_usage = 0
 602               	.L62:
  69:../../../Resources_V12/Subroutines/Basic_PC_comms.c **** 
 603               		.loc 2 69 0 discriminator 3
 604 018c 85E0      		ldi r24,lo8(5)
 605 018e 0E94 0000 		call isCharavailable
 606               	.LVL40:
 607 0192 8130      		cpi r24,lo8(1)
 608 0194 01F4      		brne .L61
 609               	.LBB46:
 610               	.LBB47:
  40:../../../Resources_V12/Subroutines/Basic_PC_comms.c **** 
 611               		.loc 2 40 0
 612 0196 8091 C600 		lds r24,198
 613               	.LBE47:
 614               	.LBE46:
  69:../../../Resources_V12/Subroutines/Basic_PC_comms.c **** 
 615               		.loc 2 69 0
 616 019a 8EE2      		ldi r24,lo8(46)
 617 019c 0E94 0000 		call Char_to_PC
 618               	.LVL41:
 619 01a0 00C0      		rjmp .L62
 620               	.L61:
  69:../../../Resources_V12/Subroutines/Basic_PC_comms.c **** 
 621               		.loc 2 69 0 is_stmt 0 discriminator 2
 622 01a2 0C94 0000 		jmp newline
 623               	.LVL42:
 624               		.cfi_endproc
 625               	.LFE40:
 627               	.global	SBtoAL
 629               	SBtoAL:
 630               	.LFB46:
  91:../../../Resources_V12/Subroutines/Basic_PC_comms.c **** 
  92:../../../Resources_V12/Subroutines/Basic_PC_comms.c **** 
  93:../../../Resources_V12/Subroutines/Basic_PC_comms.c **** /*********************************************************************/
  94:../../../Resources_V12/Subroutines/Basic_PC_comms.c **** void Num_to_PC(char radix, long long_num){
  95:../../../Resources_V12/Subroutines/Basic_PC_comms.c **** char array[12];							//Long has 10 chars + sign + null terminator	
  96:../../../Resources_V12/Subroutines/Basic_PC_comms.c **** SBtoAL(array, long_num, radix);			//calls the Binary to askii subroutine
  97:../../../Resources_V12/Subroutines/Basic_PC_comms.c **** NumericString_to_PC(array);}				//Prints characters in reverse order
  98:../../../Resources_V12/Subroutines/Basic_PC_comms.c **** 
  99:../../../Resources_V12/Subroutines/Basic_PC_comms.c **** /*********************************************************************/
 100:../../../Resources_V12/Subroutines/Basic_PC_comms.c **** void SBtoAL(char array[], long num, char radix){					//Signed Binary to Askii
 631               		.loc 2 100 0 is_stmt 1
 632               		.cfi_startproc
 633               	.LVL43:
 634 01a6 2F92      		push r2
 635               	.LCFI8:
 636               		.cfi_def_cfa_offset 3
 637               		.cfi_offset 2, -2
 638 01a8 3F92      		push r3
 639               	.LCFI9:
 640               		.cfi_def_cfa_offset 4
 641               		.cfi_offset 3, -3
 642 01aa 4F92      		push r4
 643               	.LCFI10:
 644               		.cfi_def_cfa_offset 5
 645               		.cfi_offset 4, -4
 646 01ac 5F92      		push r5
 647               	.LCFI11:
 648               		.cfi_def_cfa_offset 6
 649               		.cfi_offset 5, -5
 650 01ae 6F92      		push r6
 651               	.LCFI12:
 652               		.cfi_def_cfa_offset 7
 653               		.cfi_offset 6, -6
 654 01b0 7F92      		push r7
 655               	.LCFI13:
 656               		.cfi_def_cfa_offset 8
 657               		.cfi_offset 7, -7
 658 01b2 8F92      		push r8
 659               	.LCFI14:
 660               		.cfi_def_cfa_offset 9
 661               		.cfi_offset 8, -8
 662 01b4 9F92      		push r9
 663               	.LCFI15:
 664               		.cfi_def_cfa_offset 10
 665               		.cfi_offset 9, -9
 666 01b6 AF92      		push r10
 667               	.LCFI16:
 668               		.cfi_def_cfa_offset 11
 669               		.cfi_offset 10, -10
 670 01b8 BF92      		push r11
 671               	.LCFI17:
 672               		.cfi_def_cfa_offset 12
 673               		.cfi_offset 11, -11
 674 01ba CF92      		push r12
 675               	.LCFI18:
 676               		.cfi_def_cfa_offset 13
 677               		.cfi_offset 12, -12
 678 01bc DF92      		push r13
 679               	.LCFI19:
 680               		.cfi_def_cfa_offset 14
 681               		.cfi_offset 13, -13
 682 01be EF92      		push r14
 683               	.LCFI20:
 684               		.cfi_def_cfa_offset 15
 685               		.cfi_offset 14, -14
 686 01c0 FF92      		push r15
 687               	.LCFI21:
 688               		.cfi_def_cfa_offset 16
 689               		.cfi_offset 15, -15
 690 01c2 0F93      		push r16
 691               	.LCFI22:
 692               		.cfi_def_cfa_offset 17
 693               		.cfi_offset 16, -16
 694 01c4 1F93      		push r17
 695               	.LCFI23:
 696               		.cfi_def_cfa_offset 18
 697               		.cfi_offset 17, -17
 698 01c6 CF93      		push r28
 699               	.LCFI24:
 700               		.cfi_def_cfa_offset 19
 701               		.cfi_offset 28, -18
 702 01c8 DF93      		push r29
 703               	.LCFI25:
 704               		.cfi_def_cfa_offset 20
 705               		.cfi_offset 29, -19
 706               	/* prologue: function */
 707               	/* frame size = 0 */
 708               	/* stack size = 18 */
 709               	.L__stack_usage = 18
 710 01ca EC01      		movw r28,r24
 711 01cc 2A01      		movw r4,r20
 712 01ce 3B01      		movw r6,r22
 713               	.LVL44:
 101:../../../Resources_V12/Subroutines/Basic_PC_comms.c **** int m=0;
 102:../../../Resources_V12/Subroutines/Basic_PC_comms.c **** long sign;
 103:../../../Resources_V12/Subroutines/Basic_PC_comms.c **** 
 104:../../../Resources_V12/Subroutines/Basic_PC_comms.c **** if (num == 0x80000000){
 714               		.loc 2 104 0
 715 01d0 4115      		cp r20,__zero_reg__
 716 01d2 5105      		cpc r21,__zero_reg__
 717 01d4 6105      		cpc r22,__zero_reg__
 718 01d6 7048      		sbci r23,-128
 719               	.LVL45:
 720 01d8 01F4      		brne .L64
 721               	.LVL46:
 722               	.LBB52:
 723               	.LBB53:
 105:../../../Resources_V12/Subroutines/Basic_PC_comms.c **** switch(radix){
 724               		.loc 2 105 0
 725 01da 2A30      		cpi r18,lo8(10)
 726 01dc 01F0      		breq .L66
 727 01de 2031      		cpi r18,lo8(16)
 728 01e0 01F0      		breq .+2
 729 01e2 00C0      		rjmp .L63
 106:../../../Resources_V12/Subroutines/Basic_PC_comms.c **** case 10: array[0] = '8';array[1] = '4'; array[2] = '6';		//0x80000000 * -1 = 0
 107:../../../Resources_V12/Subroutines/Basic_PC_comms.c **** array[3] = '3';array[4] = '8';array[5] = '4'; array[6] = '7';
 108:../../../Resources_V12/Subroutines/Basic_PC_comms.c **** array[7] = '4';array[8] = '1';array[9] = '2';
 109:../../../Resources_V12/Subroutines/Basic_PC_comms.c **** array[10] = '-'; array[11] = '\0'; break;
 110:../../../Resources_V12/Subroutines/Basic_PC_comms.c **** 
 111:../../../Resources_V12/Subroutines/Basic_PC_comms.c **** case 16: array[0] = '0';array[1] = '0'; array[2] = '0';		//0x80000000 * -1 = 0
 730               		.loc 2 111 0
 731 01e4 80E3      		ldi r24,lo8(48)
 732 01e6 8883      		st Y,r24
 733 01e8 8983      		std Y+1,r24
 734 01ea 8A83      		std Y+2,r24
 112:../../../Resources_V12/Subroutines/Basic_PC_comms.c **** array[3] = '0';array[4] = '0';array[5] = '0'; array[6] = '0';
 735               		.loc 2 112 0
 736 01ec 8B83      		std Y+3,r24
 737 01ee 8C83      		std Y+4,r24
 738 01f0 8D83      		std Y+5,r24
 739 01f2 8E83      		std Y+6,r24
 113:../../../Resources_V12/Subroutines/Basic_PC_comms.c **** array[7] = '8';array[8] = '-';array[9] = '\0';
 740               		.loc 2 113 0
 741 01f4 88E3      		ldi r24,lo8(56)
 742 01f6 8F83      		std Y+7,r24
 743 01f8 8DE2      		ldi r24,lo8(45)
 744 01fa 8887      		std Y+8,r24
 745 01fc 1986      		std Y+9,__zero_reg__
 114:../../../Resources_V12/Subroutines/Basic_PC_comms.c **** array[10] = '\0'; array[11] = '\0'; break; } return;}
 746               		.loc 2 114 0
 747 01fe 1A86      		std Y+10,__zero_reg__
 748 0200 00C0      		rjmp .L76
 749               	.L66:
 106:../../../Resources_V12/Subroutines/Basic_PC_comms.c **** array[3] = '3';array[4] = '8';array[5] = '4'; array[6] = '7';
 750               		.loc 2 106 0
 751 0202 98E3      		ldi r25,lo8(56)
 752 0204 9883      		st Y,r25
 753 0206 84E3      		ldi r24,lo8(52)
 754 0208 8983      		std Y+1,r24
 755 020a 26E3      		ldi r18,lo8(54)
 756               	.LVL47:
 757 020c 2A83      		std Y+2,r18
 107:../../../Resources_V12/Subroutines/Basic_PC_comms.c **** array[7] = '4';array[8] = '1';array[9] = '2';
 758               		.loc 2 107 0
 759 020e 23E3      		ldi r18,lo8(51)
 760 0210 2B83      		std Y+3,r18
 761 0212 9C83      		std Y+4,r25
 762 0214 8D83      		std Y+5,r24
 763 0216 97E3      		ldi r25,lo8(55)
 764 0218 9E83      		std Y+6,r25
 108:../../../Resources_V12/Subroutines/Basic_PC_comms.c **** array[10] = '-'; array[11] = '\0'; break;
 765               		.loc 2 108 0
 766 021a 8F83      		std Y+7,r24
 767 021c 81E3      		ldi r24,lo8(49)
 768 021e 8887      		std Y+8,r24
 769 0220 82E3      		ldi r24,lo8(50)
 770 0222 8987      		std Y+9,r24
 109:../../../Resources_V12/Subroutines/Basic_PC_comms.c **** 
 771               		.loc 2 109 0
 772 0224 8DE2      		ldi r24,lo8(45)
 773 0226 8A87      		std Y+10,r24
 774               	.L76:
 775               		.loc 2 114 0
 776 0228 1B86      		std Y+11,__zero_reg__
 777 022a 00C0      		rjmp .L63
 778               	.LVL48:
 779               	.L64:
 780 022c 8E01      		movw r16,r28
 781 022e CE01      		movw r24,r28
 782 0230 0C96      		adiw r24,12
 783               	.LBE53:
 784               	.LBE52:
 104:../../../Resources_V12/Subroutines/Basic_PC_comms.c **** switch(radix){
 785               		.loc 2 104 0
 786 0232 FE01      		movw r30,r28
 787               	.LVL49:
 788               	.L68:
 789               	.LBB54:
 115:../../../Resources_V12/Subroutines/Basic_PC_comms.c **** 
 116:../../../Resources_V12/Subroutines/Basic_PC_comms.c **** for (int n = 0; n <=11; n++)array[n] = 0;	
 790               		.loc 2 116 0 discriminator 3
 791 0234 1192      		st Z+,__zero_reg__
 792               	.LVL50:
 793 0236 E817      		cp r30,r24
 794 0238 F907      		cpc r31,r25
 795 023a 01F4      		brne .L68
 796               	.LVL51:
 797 023c 7301      		movw r14,r6
 798 023e 6201      		movw r12,r4
 799 0240 77FE      		sbrs r7,7
 800 0242 00C0      		rjmp .L69
 801               	.LVL52:
 802 0244 CC24      		clr r12
 803 0246 DD24      		clr r13
 804 0248 7601      		movw r14,r12
 805 024a C418      		sub r12,r4
 806 024c D508      		sbc r13,r5
 807 024e E608      		sbc r14,r6
 808 0250 F708      		sbc r15,r7
 809               	.L69:
 810               		.loc 2 116 0 is_stmt 0
 811 0252 212C      		mov r2,__zero_reg__
 812 0254 312C      		mov r3,__zero_reg__
 813               	.LBE54:
 117:../../../Resources_V12/Subroutines/Basic_PC_comms.c **** if ((sign = num) < 0) num = num * (-1);
 118:../../../Resources_V12/Subroutines/Basic_PC_comms.c **** 
 119:../../../Resources_V12/Subroutines/Basic_PC_comms.c **** do {array[m] = num % radix;
 814               		.loc 2 119 0 is_stmt 1
 815 0256 822E      		mov r8,r18
 816 0258 912C      		mov r9,__zero_reg__
 817 025a A12C      		mov r10,__zero_reg__
 818 025c B12C      		mov r11,__zero_reg__
 819               	.LVL53:
 820               	.L72:
 821 025e C701      		movw r24,r14
 822 0260 B601      		movw r22,r12
 823 0262 A501      		movw r20,r10
 824 0264 9401      		movw r18,r8
 825 0266 0E94 0000 		call __divmodsi4
 826 026a F801      		movw r30,r16
 827 026c 6083      		st Z,r22
 120:../../../Resources_V12/Subroutines/Basic_PC_comms.c **** if(array[m] < 10)array[m] += '0'; else array[m] += '7';
 828               		.loc 2 120 0
 829 026e 6A30      		cpi r22,lo8(10)
 830 0270 00F4      		brsh .L70
 831               		.loc 2 120 0 is_stmt 0 discriminator 1
 832 0272 605D      		subi r22,lo8(-(48))
 833 0274 00C0      		rjmp .L75
 834               	.L70:
 835               		.loc 2 120 0 discriminator 2
 836 0276 695C      		subi r22,lo8(-(55))
 837 0278 F801      		movw r30,r16
 838               	.L75:
 839 027a 6083      		st Z,r22
 840               	.LVL54:
 121:../../../Resources_V12/Subroutines/Basic_PC_comms.c **** m++;} while ((num = num/radix) > 0);
 841               		.loc 2 121 0 is_stmt 1 discriminator 2
 842 027c FFEF      		ldi r31,-1
 843 027e 2F1A      		sub r2,r31
 844 0280 3F0A      		sbc r3,r31
 845               	.LVL55:
 846 0282 C701      		movw r24,r14
 847 0284 B601      		movw r22,r12
 848 0286 A501      		movw r20,r10
 849 0288 9401      		movw r18,r8
 850 028a 0E94 0000 		call __divmodsi4
 851 028e 6901      		movw r12,r18
 852 0290 7A01      		movw r14,r20
 853               	.LVL56:
 854 0292 0F5F      		subi r16,-1
 855 0294 1F4F      		sbci r17,-1
 856 0296 232B      		or r18,r19
 857 0298 242B      		or r18,r20
 858 029a 252B      		or r18,r21
 859 029c 01F4      		brne .L72
 122:../../../Resources_V12/Subroutines/Basic_PC_comms.c **** if (sign < 0) {array[m] = '-';m++;}}
 860               		.loc 2 122 0
 861 029e 77FE      		sbrs r7,7
 862 02a0 00C0      		rjmp .L63
 863               		.loc 2 122 0 is_stmt 0 discriminator 1
 864 02a2 C20D      		add r28,r2
 865 02a4 D31D      		adc r29,r3
 866               	.LVL57:
 867 02a6 8DE2      		ldi r24,lo8(45)
 868               	.LVL58:
 869 02a8 8883      		st Y,r24
 870               	.LVL59:
 871               	.L63:
 872               	/* epilogue start */
 873               		.loc 2 122 0
 874 02aa DF91      		pop r29
 875 02ac CF91      		pop r28
 876 02ae 1F91      		pop r17
 877 02b0 0F91      		pop r16
 878 02b2 FF90      		pop r15
 879 02b4 EF90      		pop r14
 880 02b6 DF90      		pop r13
 881 02b8 CF90      		pop r12
 882 02ba BF90      		pop r11
 883 02bc AF90      		pop r10
 884 02be 9F90      		pop r9
 885 02c0 8F90      		pop r8
 886 02c2 7F90      		pop r7
 887 02c4 6F90      		pop r6
 888 02c6 5F90      		pop r5
 889 02c8 4F90      		pop r4
 890 02ca 3F90      		pop r3
 891 02cc 2F90      		pop r2
 892 02ce 0895      		ret
 893               		.cfi_endproc
 894               	.LFE46:
 896               	.global	NumericString_to_PC
 898               	NumericString_to_PC:
 899               	.LFB47:
 123:../../../Resources_V12/Subroutines/Basic_PC_comms.c **** 
 124:../../../Resources_V12/Subroutines/Basic_PC_comms.c **** 
 125:../../../Resources_V12/Subroutines/Basic_PC_comms.c **** /*********************************************************************/
 126:../../../Resources_V12/Subroutines/Basic_PC_comms.c **** void NumericString_to_PC(char* s){					
 900               		.loc 2 126 0 is_stmt 1
 901               		.cfi_startproc
 902               	.LVL60:
 903 02d0 0F93      		push r16
 904               	.LCFI26:
 905               		.cfi_def_cfa_offset 3
 906               		.cfi_offset 16, -2
 907 02d2 1F93      		push r17
 908               	.LCFI27:
 909               		.cfi_def_cfa_offset 4
 910               		.cfi_offset 17, -3
 911 02d4 CF93      		push r28
 912               	.LCFI28:
 913               		.cfi_def_cfa_offset 5
 914               		.cfi_offset 28, -4
 915 02d6 DF93      		push r29
 916               	.LCFI29:
 917               		.cfi_def_cfa_offset 6
 918               		.cfi_offset 29, -5
 919               	/* prologue: function */
 920               	/* frame size = 0 */
 921               	/* stack size = 4 */
 922               	.L__stack_usage = 4
 923 02d8 8C01      		movw r16,r24
 924               	.LVL61:
 127:../../../Resources_V12/Subroutines/Basic_PC_comms.c **** int n=0;
 128:../../../Resources_V12/Subroutines/Basic_PC_comms.c **** while (s[n] != '\0')n++;							//scroll to end of string counting the number of characters
 925               		.loc 2 128 0
 926 02da FC01      		movw r30,r24
 927               	.LVL62:
 928               	.L78:
 929 02dc EF01      		movw r28,r30
 930 02de C01B      		sub r28,r16
 931 02e0 D10B      		sbc r29,r17
 932               	.LVL63:
 933               		.loc 2 128 0 is_stmt 0 discriminator 1
 934 02e2 8191      		ld r24,Z+
 935 02e4 8111      		cpse r24,__zero_reg__
 936 02e6 00C0      		rjmp .L78
 937 02e8 C00F      		add r28,r16
 938 02ea D11F      		adc r29,r17
 939               	.LVL64:
 940               	.L79:
 941               	.LBB55:
 129:../../../Resources_V12/Subroutines/Basic_PC_comms.c **** for(int m = n; m; m--)Char_to_PC(*(s + m-1));}		//print last character first
 942               		.loc 2 129 0 is_stmt 1 discriminator 1
 943 02ec 0C17      		cp r16,r28
 944 02ee 1D07      		cpc r17,r29
 945 02f0 01F0      		breq .L82
 946               		.loc 2 129 0 is_stmt 0 discriminator 3
 947 02f2 8A91      		ld r24,-Y
 948               	.LVL65:
 949 02f4 0E94 0000 		call Char_to_PC
 950               	.LVL66:
 951 02f8 00C0      		rjmp .L79
 952               	.L82:
 953               	/* epilogue start */
 954               	.LBE55:
 955               		.loc 2 129 0
 956 02fa DF91      		pop r29
 957 02fc CF91      		pop r28
 958               	.LVL67:
 959 02fe 1F91      		pop r17
 960 0300 0F91      		pop r16
 961               	.LVL68:
 962 0302 0895      		ret
 963               		.cfi_endproc
 964               	.LFE47:
 966               	.global	Num_to_PC
 968               	Num_to_PC:
 969               	.LFB45:
  94:../../../Resources_V12/Subroutines/Basic_PC_comms.c **** char array[12];							//Long has 10 chars + sign + null terminator	
 970               		.loc 2 94 0 is_stmt 1
 971               		.cfi_startproc
 972               	.LVL69:
 973 0304 CF93      		push r28
 974               	.LCFI30:
 975               		.cfi_def_cfa_offset 3
 976               		.cfi_offset 28, -2
 977 0306 DF93      		push r29
 978               	.LCFI31:
 979               		.cfi_def_cfa_offset 4
 980               		.cfi_offset 29, -3
 981 0308 CDB7      		in r28,__SP_L__
 982 030a DEB7      		in r29,__SP_H__
 983               	.LCFI32:
 984               		.cfi_def_cfa_register 28
 985 030c 2C97      		sbiw r28,12
 986               	.LCFI33:
 987               		.cfi_def_cfa_offset 16
 988 030e 0FB6      		in __tmp_reg__,__SREG__
 989 0310 F894      		cli
 990 0312 DEBF      		out __SP_H__,r29
 991 0314 0FBE      		out __SREG__,__tmp_reg__
 992 0316 CDBF      		out __SP_L__,r28
 993               	/* prologue: function */
 994               	/* frame size = 12 */
 995               	/* stack size = 14 */
 996               	.L__stack_usage = 14
  96:../../../Resources_V12/Subroutines/Basic_PC_comms.c **** NumericString_to_PC(array);}				//Prints characters in reverse order
 997               		.loc 2 96 0
 998 0318 282F      		mov r18,r24
 999 031a CE01      		movw r24,r28
 1000               	.LVL70:
 1001 031c 0196      		adiw r24,1
 1002 031e 0E94 0000 		call SBtoAL
 1003               	.LVL71:
  97:../../../Resources_V12/Subroutines/Basic_PC_comms.c **** 
 1004               		.loc 2 97 0
 1005 0322 CE01      		movw r24,r28
 1006 0324 0196      		adiw r24,1
 1007 0326 0E94 0000 		call NumericString_to_PC
 1008               	.LVL72:
 1009               	/* epilogue start */
 1010 032a 2C96      		adiw r28,12
 1011 032c 0FB6      		in __tmp_reg__,__SREG__
 1012 032e F894      		cli
 1013 0330 DEBF      		out __SP_H__,r29
 1014 0332 0FBE      		out __SREG__,__tmp_reg__
 1015 0334 CDBF      		out __SP_L__,r28
 1016 0336 DF91      		pop r29
 1017 0338 CF91      		pop r28
 1018 033a 0895      		ret
 1019               		.cfi_endproc
 1020               	.LFE45:
 1022               	.global	decimal_digit
 1024               	decimal_digit:
 1025               	.LFB48:
 130:../../../Resources_V12/Subroutines/Basic_PC_comms.c **** 
 131:../../../Resources_V12/Subroutines/Basic_PC_comms.c **** 
 132:../../../Resources_V12/Subroutines/Basic_PC_comms.c **** /*********************************************************************/
 133:../../../Resources_V12/Subroutines/Basic_PC_comms.c **** char decimal_digit (char data){
 1026               		.loc 2 133 0
 1027               		.cfi_startproc
 1028               	.LVL73:
 1029               	/* prologue: function */
 1030               	/* frame size = 0 */
 1031               	/* stack size = 0 */
 1032               	.L__stack_usage = 0
 1033 033c 90ED      		ldi r25,lo8(-48)
 1034 033e 980F      		add r25,r24
 1035 0340 81E0      		ldi r24,lo8(1)
 1036               	.LVL74:
 1037 0342 9A30      		cpi r25,lo8(10)
 1038 0344 00F0      		brlo .L85
 1039 0346 80E0      		ldi r24,0
 1040               	.L85:
 134:../../../Resources_V12/Subroutines/Basic_PC_comms.c **** if (((data > '9') || (data < '0')) )return 0;
 135:../../../Resources_V12/Subroutines/Basic_PC_comms.c **** else return 1;}
 1041               		.loc 2 135 0
 1042 0348 0895      		ret
 1043               		.cfi_endproc
 1044               	.LFE48:
 1046               	.global	hex_digit
 1048               	hex_digit:
 1049               	.LFB49:
 136:../../../Resources_V12/Subroutines/Basic_PC_comms.c **** 
 137:../../../Resources_V12/Subroutines/Basic_PC_comms.c **** 
 138:../../../Resources_V12/Subroutines/Basic_PC_comms.c **** /*********************************************************************/
 139:../../../Resources_V12/Subroutines/Basic_PC_comms.c **** char hex_digit (char data){
 1050               		.loc 2 139 0
 1051               		.cfi_startproc
 1052               	.LVL75:
 1053               	/* prologue: function */
 1054               	/* frame size = 0 */
 1055               	/* stack size = 0 */
 1056               	.L__stack_usage = 0
 140:../../../Resources_V12/Subroutines/Basic_PC_comms.c **** switch(data){
 1057               		.loc 2 140 0
 1058 034a 8033      		cpi r24,lo8(48)
 1059 034c 00F0      		brlo .L87
 1060 034e 8A33      		cpi r24,lo8(58)
 1061 0350 00F0      		brlo .L89
 1062 0352 8154      		subi r24,lo8(-(-65))
 1063               	.LVL76:
 1064 0354 8630      		cpi r24,lo8(6)
 1065 0356 00F0      		brlo .L89
 1066               	.LVL77:
 1067               	.L87:
 141:../../../Resources_V12/Subroutines/Basic_PC_comms.c **** case '0': case '1': case '2': case '3': case '4': case '5': case '6':
 142:../../../Resources_V12/Subroutines/Basic_PC_comms.c **** case '7': case '8': case '9': case 'A': case 'B': case 'C': case 'D':
 143:../../../Resources_V12/Subroutines/Basic_PC_comms.c **** case 'E': case 'F': return 1; break;
 144:../../../Resources_V12/Subroutines/Basic_PC_comms.c **** default: return 0; break;}}
 1068               		.loc 2 144 0
 1069 0358 80E0      		ldi r24,0
 1070 035a 0895      		ret
 1071               	.L89:
 143:../../../Resources_V12/Subroutines/Basic_PC_comms.c **** default: return 0; break;}}
 1072               		.loc 2 143 0
 1073 035c 81E0      		ldi r24,lo8(1)
 1074               		.loc 2 144 0
 1075 035e 0895      		ret
 1076               		.cfi_endproc
 1077               	.LFE49:
 1079               		.section	.rodata.str1.1
 1080               	.LC1:
 1081 0003 2045 2D00 		.string	" E-"
 1082               	.LC2:
 1083 0007 2045 2B00 		.string	" E+"
 1084               		.text
 1085               	.global	Exp_to_PC
 1087               	Exp_to_PC:
 1088               	.LFB50:
 145:../../../Resources_V12/Subroutines/Basic_PC_comms.c **** 
 146:../../../Resources_V12/Subroutines/Basic_PC_comms.c **** 
 147:../../../Resources_V12/Subroutines/Basic_PC_comms.c **** /*********************************************************************/
 148:../../../Resources_V12/Subroutines/Basic_PC_comms.c **** void Exp_to_PC (signed char expt){
 1089               		.loc 2 148 0
 1090               		.cfi_startproc
 1091               	.LVL78:
 1092 0360 CF93      		push r28
 1093               	.LCFI34:
 1094               		.cfi_def_cfa_offset 3
 1095               		.cfi_offset 28, -2
 1096               	/* prologue: function */
 1097               	/* frame size = 0 */
 1098               	/* stack size = 1 */
 1099               	.L__stack_usage = 1
 1100 0362 C82F      		mov r28,r24
 149:../../../Resources_V12/Subroutines/Basic_PC_comms.c **** if (expt < 0) { String_to_PC (" E-");Num_to_PC(10,expt*(-1));}
 1101               		.loc 2 149 0
 1102 0364 87FF      		sbrs r24,7
 1103 0366 00C0      		rjmp .L91
 1104               	.LVL79:
 1105               	.LBB58:
 1106               	.LBB59:
 1107 0368 80E0      		ldi r24,lo8(.LC1)
 1108 036a 90E0      		ldi r25,hi8(.LC1)
 1109               	.LVL80:
 1110 036c 0E94 0000 		call String_to_PC
 1111               	.LVL81:
 1112 0370 8C2F      		mov r24,r28
 1113 0372 9927      		clr r25
 1114 0374 8195      		neg r24
 1115 0376 04F4      		brge .+2
 1116 0378 9095      		com r25
 1117 037a AC01      		movw r20,r24
 1118 037c 052E      		mov __tmp_reg__,r21
 1119 037e 000C      		lsl r0
 1120 0380 660B      		sbc r22,r22
 1121 0382 770B      		sbc r23,r23
 1122 0384 00C0      		rjmp .L92
 1123               	.LVL82:
 1124               	.L91:
 1125               	.LBE59:
 1126               	.LBE58:
 150:../../../Resources_V12/Subroutines/Basic_PC_comms.c **** else {String_to_PC (" E+");Num_to_PC(10,expt);}}
 1127               		.loc 2 150 0
 1128 0386 80E0      		ldi r24,lo8(.LC2)
 1129 0388 90E0      		ldi r25,hi8(.LC2)
 1130               	.LVL83:
 1131 038a 0E94 0000 		call String_to_PC
 1132               	.LVL84:
 1133 038e 4C2F      		mov r20,r28
 1134 0390 CC0F      		lsl r28
 1135 0392 550B      		sbc r21,r21
 1136 0394 660B      		sbc r22,r22
 1137 0396 770B      		sbc r23,r23
 1138               	.L92:
 1139 0398 8AE0      		ldi r24,lo8(10)
 1140               	/* epilogue start */
 1141 039a CF91      		pop r28
 1142               	.LVL85:
 1143 039c 0C94 0000 		jmp Num_to_PC
 1144               	.LVL86:
 1145               		.cfi_endproc
 1146               	.LFE50:
 1148               	.global	UBtoAL
 1150               	UBtoAL:
 1151               	.LFB52:
 151:../../../Resources_V12/Subroutines/Basic_PC_comms.c **** 
 152:../../../Resources_V12/Subroutines/Basic_PC_comms.c **** 
 153:../../../Resources_V12/Subroutines/Basic_PC_comms.c **** /*********************************************************************/
 154:../../../Resources_V12/Subroutines/Basic_PC_comms.c **** void Num_to_PC_U(char radix, unsigned long long_num){
 155:../../../Resources_V12/Subroutines/Basic_PC_comms.c **** char array[12];							//Long has 10 chars + sign + null terminator	
 156:../../../Resources_V12/Subroutines/Basic_PC_comms.c **** UBtoAL(array, long_num, radix);			//calls the Binary to askii subroutine
 157:../../../Resources_V12/Subroutines/Basic_PC_comms.c **** NumericString_to_PC(array);}	
 158:../../../Resources_V12/Subroutines/Basic_PC_comms.c **** 
 159:../../../Resources_V12/Subroutines/Basic_PC_comms.c **** 
 160:../../../Resources_V12/Subroutines/Basic_PC_comms.c **** /*********************************************************************/
 161:../../../Resources_V12/Subroutines/Basic_PC_comms.c **** void UBtoAL(char array[], unsigned long num, char radix){					//Signed Binary to Askii
 1152               		.loc 2 161 0
 1153               		.cfi_startproc
 1154               	.LVL87:
 1155 03a0 8F92      		push r8
 1156               	.LCFI35:
 1157               		.cfi_def_cfa_offset 3
 1158               		.cfi_offset 8, -2
 1159 03a2 9F92      		push r9
 1160               	.LCFI36:
 1161               		.cfi_def_cfa_offset 4
 1162               		.cfi_offset 9, -3
 1163 03a4 AF92      		push r10
 1164               	.LCFI37:
 1165               		.cfi_def_cfa_offset 5
 1166               		.cfi_offset 10, -4
 1167 03a6 BF92      		push r11
 1168               	.LCFI38:
 1169               		.cfi_def_cfa_offset 6
 1170               		.cfi_offset 11, -5
 1171 03a8 CF92      		push r12
 1172               	.LCFI39:
 1173               		.cfi_def_cfa_offset 7
 1174               		.cfi_offset 12, -6
 1175 03aa DF92      		push r13
 1176               	.LCFI40:
 1177               		.cfi_def_cfa_offset 8
 1178               		.cfi_offset 13, -7
 1179 03ac EF92      		push r14
 1180               	.LCFI41:
 1181               		.cfi_def_cfa_offset 9
 1182               		.cfi_offset 14, -8
 1183 03ae FF92      		push r15
 1184               	.LCFI42:
 1185               		.cfi_def_cfa_offset 10
 1186               		.cfi_offset 15, -9
 1187 03b0 CF93      		push r28
 1188               	.LCFI43:
 1189               		.cfi_def_cfa_offset 11
 1190               		.cfi_offset 28, -10
 1191 03b2 DF93      		push r29
 1192               	.LCFI44:
 1193               		.cfi_def_cfa_offset 12
 1194               		.cfi_offset 29, -11
 1195               	/* prologue: function */
 1196               	/* frame size = 0 */
 1197               	/* stack size = 10 */
 1198               	.L__stack_usage = 10
 1199 03b4 6A01      		movw r12,r20
 1200 03b6 7B01      		movw r14,r22
 1201               	.LVL88:
 1202 03b8 EC01      		movw r28,r24
 1203 03ba 0C96      		adiw r24,12
 1204               	.LVL89:
 1205               		.loc 2 161 0
 1206 03bc FE01      		movw r30,r28
 1207               	.LVL90:
 1208               	.L94:
 1209               	.LBB60:
 162:../../../Resources_V12/Subroutines/Basic_PC_comms.c **** int m=0;
 163:../../../Resources_V12/Subroutines/Basic_PC_comms.c **** for (int n = 0; n <=11; n++)array[n] = 0;	
 1210               		.loc 2 163 0 discriminator 3
 1211 03be 1192      		st Z+,__zero_reg__
 1212               	.LVL91:
 1213 03c0 E817      		cp r30,r24
 1214 03c2 F907      		cpc r31,r25
 1215 03c4 01F4      		brne .L94
 1216               	.LBE60:
 164:../../../Resources_V12/Subroutines/Basic_PC_comms.c **** do {array[m] = num % radix;
 1217               		.loc 2 164 0
 1218 03c6 822E      		mov r8,r18
 1219 03c8 912C      		mov r9,__zero_reg__
 1220 03ca A12C      		mov r10,__zero_reg__
 1221 03cc B12C      		mov r11,__zero_reg__
 1222               	.LVL92:
 1223               	.L98:
 1224 03ce C701      		movw r24,r14
 1225 03d0 B601      		movw r22,r12
 1226 03d2 A501      		movw r20,r10
 1227 03d4 9401      		movw r18,r8
 1228 03d6 0E94 0000 		call __udivmodsi4
 1229 03da 6883      		st Y,r22
 165:../../../Resources_V12/Subroutines/Basic_PC_comms.c **** if(array[m] < 10)array[m] += '0'; else array[m] += '7';
 1230               		.loc 2 165 0
 1231 03dc 6A30      		cpi r22,lo8(10)
 1232 03de 00F4      		brsh .L95
 1233               		.loc 2 165 0 is_stmt 0 discriminator 1
 1234 03e0 605D      		subi r22,lo8(-(48))
 1235 03e2 00C0      		rjmp .L101
 1236               	.L95:
 1237               		.loc 2 165 0 discriminator 2
 1238 03e4 695C      		subi r22,lo8(-(55))
 1239               	.L101:
 1240 03e6 6883      		st Y,r22
 1241               	.LVL93:
 166:../../../Resources_V12/Subroutines/Basic_PC_comms.c **** m++;} while ((num = num/radix) > 0);}
 1242               		.loc 2 166 0 is_stmt 1 discriminator 2
 1243 03e8 C701      		movw r24,r14
 1244 03ea B601      		movw r22,r12
 1245 03ec A501      		movw r20,r10
 1246 03ee 9401      		movw r18,r8
 1247 03f0 0E94 0000 		call __udivmodsi4
 1248 03f4 6901      		movw r12,r18
 1249 03f6 7A01      		movw r14,r20
 1250               	.LVL94:
 1251 03f8 2196      		adiw r28,1
 1252               	.LVL95:
 1253 03fa 232B      		or r18,r19
 1254 03fc 242B      		or r18,r20
 1255 03fe 252B      		or r18,r21
 1256 0400 01F4      		brne .L98
 1257               	/* epilogue start */
 1258               		.loc 2 166 0 is_stmt 0
 1259 0402 DF91      		pop r29
 1260 0404 CF91      		pop r28
 1261               	.LVL96:
 1262 0406 FF90      		pop r15
 1263 0408 EF90      		pop r14
 1264 040a DF90      		pop r13
 1265 040c CF90      		pop r12
 1266               	.LVL97:
 1267 040e BF90      		pop r11
 1268 0410 AF90      		pop r10
 1269 0412 9F90      		pop r9
 1270 0414 8F90      		pop r8
 1271               	.LVL98:
 1272 0416 0895      		ret
 1273               		.cfi_endproc
 1274               	.LFE52:
 1276               	.global	Num_to_PC_U
 1278               	Num_to_PC_U:
 1279               	.LFB51:
 154:../../../Resources_V12/Subroutines/Basic_PC_comms.c **** char array[12];							//Long has 10 chars + sign + null terminator	
 1280               		.loc 2 154 0 is_stmt 1
 1281               		.cfi_startproc
 1282               	.LVL99:
 1283 0418 CF93      		push r28
 1284               	.LCFI45:
 1285               		.cfi_def_cfa_offset 3
 1286               		.cfi_offset 28, -2
 1287 041a DF93      		push r29
 1288               	.LCFI46:
 1289               		.cfi_def_cfa_offset 4
 1290               		.cfi_offset 29, -3
 1291 041c CDB7      		in r28,__SP_L__
 1292 041e DEB7      		in r29,__SP_H__
 1293               	.LCFI47:
 1294               		.cfi_def_cfa_register 28
 1295 0420 2C97      		sbiw r28,12
 1296               	.LCFI48:
 1297               		.cfi_def_cfa_offset 16
 1298 0422 0FB6      		in __tmp_reg__,__SREG__
 1299 0424 F894      		cli
 1300 0426 DEBF      		out __SP_H__,r29
 1301 0428 0FBE      		out __SREG__,__tmp_reg__
 1302 042a CDBF      		out __SP_L__,r28
 1303               	/* prologue: function */
 1304               	/* frame size = 12 */
 1305               	/* stack size = 14 */
 1306               	.L__stack_usage = 14
 156:../../../Resources_V12/Subroutines/Basic_PC_comms.c **** NumericString_to_PC(array);}	
 1307               		.loc 2 156 0
 1308 042c 282F      		mov r18,r24
 1309 042e CE01      		movw r24,r28
 1310               	.LVL100:
 1311 0430 0196      		adiw r24,1
 1312 0432 0E94 0000 		call UBtoAL
 1313               	.LVL101:
 157:../../../Resources_V12/Subroutines/Basic_PC_comms.c **** 
 1314               		.loc 2 157 0
 1315 0436 CE01      		movw r24,r28
 1316 0438 0196      		adiw r24,1
 1317 043a 0E94 0000 		call NumericString_to_PC
 1318               	.LVL102:
 1319               	/* epilogue start */
 1320 043e 2C96      		adiw r28,12
 1321 0440 0FB6      		in __tmp_reg__,__SREG__
 1322 0442 F894      		cli
 1323 0444 DEBF      		out __SP_H__,r29
 1324 0446 0FBE      		out __SREG__,__tmp_reg__
 1325 0448 CDBF      		out __SP_L__,r28
 1326 044a DF91      		pop r29
 1327 044c CF91      		pop r28
 1328 044e 0895      		ret
 1329               		.cfi_endproc
 1330               	.LFE51:
 1332               	.global	Fraction_to_Binary_Unsigned
 1334               	Fraction_to_Binary_Unsigned:
 1335               	.LFB54:
 1336               		.file 3 "../../../Resources_V12/Subroutines/Arithmetic.c"
   1:../../../Resources_V12/Subroutines/Arithmetic.c **** 
   2:../../../Resources_V12/Subroutines/Arithmetic.c **** 
   3:../../../Resources_V12/Subroutines/Arithmetic.c **** //#include "../../Resources/Header_files/I_O_from switches.h"
   4:../../../Resources_V12/Subroutines/Arithmetic.c **** 
   5:../../../Resources_V12/Subroutines/Arithmetic.c **** void fraction_to_decimal_string(long, long, char*);
   6:../../../Resources_V12/Subroutines/Arithmetic.c **** unsigned long Fraction_to_Binary_Unsigned(unsigned long,unsigned long);
   7:../../../Resources_V12/Subroutines/Arithmetic.c **** unsigned long Binary_points_to_Decimal_Unsigned (unsigned long);
   8:../../../Resources_V12/Subroutines/Arithmetic.c **** long Fraction_to_Binary_Signed( long, long);
   9:../../../Resources_V12/Subroutines/Arithmetic.c **** long Binary_points_to_Decimal_Signed (long);
  10:../../../Resources_V12/Subroutines/Arithmetic.c **** 
  11:../../../Resources_V12/Subroutines/Arithmetic.c **** 
  12:../../../Resources_V12/Subroutines/Arithmetic.c **** 
  13:../../../Resources_V12/Subroutines/Arithmetic.c **** /******************************************************************************/
  14:../../../Resources_V12/Subroutines/Arithmetic.c **** void fraction_to_decimal_string(long remainder, long denominator, char digits[]){
  15:../../../Resources_V12/Subroutines/Arithmetic.c **** long digit;
  16:../../../Resources_V12/Subroutines/Arithmetic.c **** int m=6;
  17:../../../Resources_V12/Subroutines/Arithmetic.c **** 
  18:../../../Resources_V12/Subroutines/Arithmetic.c **** clear_digits;
  19:../../../Resources_V12/Subroutines/Arithmetic.c **** 
  20:../../../Resources_V12/Subroutines/Arithmetic.c **** digits[7]= '0';
  21:../../../Resources_V12/Subroutines/Arithmetic.c **** digits[6] = '_';
  22:../../../Resources_V12/Subroutines/Arithmetic.c **** String_to_PC("0.");
  23:../../../Resources_V12/Subroutines/Arithmetic.c **** 
  24:../../../Resources_V12/Subroutines/Arithmetic.c **** while(switch_2_up){
  25:../../../Resources_V12/Subroutines/Arithmetic.c **** digit = (remainder *10/denominator);
  26:../../../Resources_V12/Subroutines/Arithmetic.c **** remainder = ((remainder *10)%denominator);
  27:../../../Resources_V12/Subroutines/Arithmetic.c **** 
  28:../../../Resources_V12/Subroutines/Arithmetic.c **** Char_to_PC(digit+'0');
  29:../../../Resources_V12/Subroutines/Arithmetic.c **** if(m){digits[m-1] = (digit+'0');m--;I2C_Tx_8_byte_array(digits);Timer_T0_10mS_delay_x_m(12);}
  30:../../../Resources_V12/Subroutines/Arithmetic.c **** Timer_T0_10mS_delay_x_m(6);}}
  31:../../../Resources_V12/Subroutines/Arithmetic.c **** 
  32:../../../Resources_V12/Subroutines/Arithmetic.c **** 
  33:../../../Resources_V12/Subroutines/Arithmetic.c **** 
  34:../../../Resources_V12/Subroutines/Arithmetic.c **** /******************************************************************************/
  35:../../../Resources_V12/Subroutines/Arithmetic.c **** unsigned long Fraction_to_Binary_Unsigned(unsigned long rem,unsigned long Den){	
 1337               		.loc 3 35 0
 1338               		.cfi_startproc
 1339               	.LVL103:
 1340 0450 2F92      		push r2
 1341               	.LCFI49:
 1342               		.cfi_def_cfa_offset 3
 1343               		.cfi_offset 2, -2
 1344 0452 3F92      		push r3
 1345               	.LCFI50:
 1346               		.cfi_def_cfa_offset 4
 1347               		.cfi_offset 3, -3
 1348 0454 4F92      		push r4
 1349               	.LCFI51:
 1350               		.cfi_def_cfa_offset 5
 1351               		.cfi_offset 4, -4
 1352 0456 5F92      		push r5
 1353               	.LCFI52:
 1354               		.cfi_def_cfa_offset 6
 1355               		.cfi_offset 5, -5
 1356 0458 6F92      		push r6
 1357               	.LCFI53:
 1358               		.cfi_def_cfa_offset 7
 1359               		.cfi_offset 6, -6
 1360 045a 7F92      		push r7
 1361               	.LCFI54:
 1362               		.cfi_def_cfa_offset 8
 1363               		.cfi_offset 7, -7
 1364 045c 8F92      		push r8
 1365               	.LCFI55:
 1366               		.cfi_def_cfa_offset 9
 1367               		.cfi_offset 8, -8
 1368 045e 9F92      		push r9
 1369               	.LCFI56:
 1370               		.cfi_def_cfa_offset 10
 1371               		.cfi_offset 9, -9
 1372 0460 AF92      		push r10
 1373               	.LCFI57:
 1374               		.cfi_def_cfa_offset 11
 1375               		.cfi_offset 10, -10
 1376 0462 BF92      		push r11
 1377               	.LCFI58:
 1378               		.cfi_def_cfa_offset 12
 1379               		.cfi_offset 11, -11
 1380 0464 CF92      		push r12
 1381               	.LCFI59:
 1382               		.cfi_def_cfa_offset 13
 1383               		.cfi_offset 12, -12
 1384 0466 DF92      		push r13
 1385               	.LCFI60:
 1386               		.cfi_def_cfa_offset 14
 1387               		.cfi_offset 13, -13
 1388 0468 EF92      		push r14
 1389               	.LCFI61:
 1390               		.cfi_def_cfa_offset 15
 1391               		.cfi_offset 14, -14
 1392 046a FF92      		push r15
 1393               	.LCFI62:
 1394               		.cfi_def_cfa_offset 16
 1395               		.cfi_offset 15, -15
 1396 046c 0F93      		push r16
 1397               	.LCFI63:
 1398               		.cfi_def_cfa_offset 17
 1399               		.cfi_offset 16, -16
 1400 046e 1F93      		push r17
 1401               	.LCFI64:
 1402               		.cfi_def_cfa_offset 18
 1403               		.cfi_offset 17, -17
 1404 0470 CF93      		push r28
 1405               	.LCFI65:
 1406               		.cfi_def_cfa_offset 19
 1407               		.cfi_offset 28, -18
 1408 0472 DF93      		push r29
 1409               	.LCFI66:
 1410               		.cfi_def_cfa_offset 20
 1411               		.cfi_offset 29, -19
 1412               	/* prologue: function */
 1413               	/* frame size = 0 */
 1414               	/* stack size = 18 */
 1415               	.L__stack_usage = 18
 1416 0474 2901      		movw r4,r18
 1417 0476 3A01      		movw r6,r20
 1418               	.LVL104:
  36:../../../Resources_V12/Subroutines/Arithmetic.c **** unsigned long Result = 0; 
  37:../../../Resources_V12/Subroutines/Arithmetic.c **** unsigned int res_LB=0; 
  38:../../../Resources_V12/Subroutines/Arithmetic.c **** char mode = 1;
  39:../../../Resources_V12/Subroutines/Arithmetic.c **** 
  40:../../../Resources_V12/Subroutines/Arithmetic.c **** if((rem >= 0x80000000) || (Den >= 0x80000000))
 1419               		.loc 3 40 0
 1420 0478 97FD      		sbrc r25,7
 1421 047a 00C0      		rjmp .L104
 1422               		.loc 3 40 0 is_stmt 0 discriminator 1
 1423 047c 57FF      		sbrs r21,7
 1424 047e 00C0      		rjmp .L105
 1425               	.L104:
  41:../../../Resources_V12/Subroutines/Arithmetic.c **** {rem /= 2; Den /= 2;}
 1426               		.loc 3 41 0 is_stmt 1
 1427 0480 9695      		lsr r25
 1428 0482 8795      		ror r24
 1429 0484 7795      		ror r23
 1430 0486 6795      		ror r22
 1431               	.LVL105:
 1432 0488 7694      		lsr r7
 1433 048a 6794      		ror r6
 1434 048c 5794      		ror r5
 1435 048e 4794      		ror r4
 1436               	.LVL106:
 1437               	.L105:
  35:../../../Resources_V12/Subroutines/Arithmetic.c **** unsigned long Result = 0; 
 1438               		.loc 3 35 0
 1439 0490 CFE0      		ldi r28,lo8(15)
 1440 0492 D0E0      		ldi r29,0
  36:../../../Resources_V12/Subroutines/Arithmetic.c **** unsigned long Result = 0; 
 1441               		.loc 3 36 0
 1442 0494 812C      		mov r8,__zero_reg__
 1443 0496 912C      		mov r9,__zero_reg__
 1444 0498 5401      		movw r10,r8
 1445               	.LBB61:
  42:../../../Resources_V12/Subroutines/Arithmetic.c **** 
  43:../../../Resources_V12/Subroutines/Arithmetic.c **** if(mode == 1){
  44:../../../Resources_V12/Subroutines/Arithmetic.c **** for(int n = 0; n <= 15; n++){					//bit 0 is reserved for sign bit
  45:../../../Resources_V12/Subroutines/Arithmetic.c **** if ((2*(rem))/Den)(Result) |= (1 << (15-n));
 1446               		.loc 3 45 0
 1447 049a 01E0      		ldi r16,lo8(1)
 1448 049c 10E0      		ldi r17,0
 1449               	.LVL107:
 1450               	.L107:
 1451 049e 6B01      		movw r12,r22
 1452 04a0 7C01      		movw r14,r24
 1453 04a2 CC0C      		lsl r12
 1454 04a4 DD1C      		rol r13
 1455 04a6 EE1C      		rol r14
 1456 04a8 FF1C      		rol r15
 1457 04aa C701      		movw r24,r14
 1458 04ac B601      		movw r22,r12
 1459               	.LVL108:
 1460 04ae A301      		movw r20,r6
 1461 04b0 9201      		movw r18,r4
 1462 04b2 0E94 0000 		call __udivmodsi4
 1463 04b6 232B      		or r18,r19
 1464 04b8 242B      		or r18,r20
 1465 04ba 252B      		or r18,r21
 1466 04bc 01F0      		breq .L106
 1467               		.loc 3 45 0 is_stmt 0 discriminator 1
 1468 04be C801      		movw r24,r16
 1469 04c0 0C2E      		mov r0,r28
 1470 04c2 00C0      		rjmp 2f
 1471               		1:
 1472 04c4 880F      		lsl r24
 1473 04c6 991F      		rol r25
 1474               		2:
 1475 04c8 0A94      		dec r0
 1476 04ca 02F4      		brpl 1b
 1477 04cc 092E      		mov __tmp_reg__,r25
 1478 04ce 000C      		lsl r0
 1479 04d0 AA0B      		sbc r26,r26
 1480 04d2 BB0B      		sbc r27,r27
 1481 04d4 882A      		or r8,r24
 1482 04d6 992A      		or r9,r25
 1483 04d8 AA2A      		or r10,r26
 1484 04da BB2A      		or r11,r27
 1485               	.LVL109:
 1486               	.L106:
  46:../../../Resources_V12/Subroutines/Arithmetic.c **** rem = (2*(rem))%Den; }
 1487               		.loc 3 46 0 is_stmt 1 discriminator 2
 1488 04dc C701      		movw r24,r14
 1489 04de B601      		movw r22,r12
 1490 04e0 A301      		movw r20,r6
 1491 04e2 9201      		movw r18,r4
 1492 04e4 0E94 0000 		call __udivmodsi4
 1493               	.LVL110:
 1494               	.LVL111:
 1495 04e8 2197      		sbiw r28,1
 1496 04ea 00F4      		brcc .L107
 1497               	.LBE61:
  47:../../../Resources_V12/Subroutines/Arithmetic.c **** Result = Result << 16;
 1498               		.loc 3 47 0
 1499 04ec 5401      		movw r10,r8
 1500 04ee 9924      		clr r9
 1501 04f0 8824      		clr r8
 1502               	.LVL112:
 1503 04f2 CFE0      		ldi r28,lo8(15)
 1504 04f4 D0E0      		ldi r29,0
 1505               	.LVL113:
  37:../../../Resources_V12/Subroutines/Arithmetic.c **** char mode = 1;
 1506               		.loc 3 37 0
 1507 04f6 00E0      		ldi r16,0
 1508 04f8 10E0      		ldi r17,0
 1509               	.LBB62:
  48:../../../Resources_V12/Subroutines/Arithmetic.c **** for(int n = 0; n <= 15; n++){
  49:../../../Resources_V12/Subroutines/Arithmetic.c **** if ((2*(rem))/Den)(res_LB) |= (1 << (15-n));
 1510               		.loc 3 49 0
 1511 04fa 2224      		clr r2
 1512 04fc 2394      		inc r2
 1513 04fe 312C      		mov r3,__zero_reg__
 1514               	.LVL114:
 1515               	.L109:
 1516 0500 6B01      		movw r12,r22
 1517 0502 7C01      		movw r14,r24
 1518 0504 CC0C      		lsl r12
 1519 0506 DD1C      		rol r13
 1520 0508 EE1C      		rol r14
 1521 050a FF1C      		rol r15
 1522 050c C701      		movw r24,r14
 1523 050e B601      		movw r22,r12
 1524               	.LVL115:
 1525 0510 A301      		movw r20,r6
 1526 0512 9201      		movw r18,r4
 1527 0514 0E94 0000 		call __udivmodsi4
 1528 0518 232B      		or r18,r19
 1529 051a 242B      		or r18,r20
 1530 051c 252B      		or r18,r21
 1531 051e 01F0      		breq .L108
 1532               		.loc 3 49 0 is_stmt 0 discriminator 1
 1533 0520 C101      		movw r24,r2
 1534 0522 0C2E      		mov r0,r28
 1535 0524 00C0      		rjmp 2f
 1536               		1:
 1537 0526 880F      		lsl r24
 1538 0528 991F      		rol r25
 1539               		2:
 1540 052a 0A94      		dec r0
 1541 052c 02F4      		brpl 1b
 1542 052e 082B      		or r16,r24
 1543 0530 192B      		or r17,r25
 1544               	.LVL116:
 1545               	.L108:
  50:../../../Resources_V12/Subroutines/Arithmetic.c **** rem = (2*(rem))%Den;}}
 1546               		.loc 3 50 0 is_stmt 1 discriminator 2
 1547 0532 C701      		movw r24,r14
 1548 0534 B601      		movw r22,r12
 1549 0536 A301      		movw r20,r6
 1550 0538 9201      		movw r18,r4
 1551 053a 0E94 0000 		call __udivmodsi4
 1552               	.LVL117:
 1553               	.LVL118:
 1554 053e 2197      		sbiw r28,1
 1555 0540 00F4      		brcc .L109
 1556               	.LBE62:
  51:../../../Resources_V12/Subroutines/Arithmetic.c **** 
  52:../../../Resources_V12/Subroutines/Arithmetic.c **** if(mode == 0){
  53:../../../Resources_V12/Subroutines/Arithmetic.c **** for(int n = 0; n <= 15; n++){					//bit 0 is reserved for sign bit
  54:../../../Resources_V12/Subroutines/Arithmetic.c **** if ((2*(rem))/Den){(Result) |= (1 << (15-n));sendChar('1');} else sendChar('0');
  55:../../../Resources_V12/Subroutines/Arithmetic.c **** rem = (2*(rem))%Den; }
  56:../../../Resources_V12/Subroutines/Arithmetic.c **** Result = Result << 16;
  57:../../../Resources_V12/Subroutines/Arithmetic.c **** for(int n = 0; n <= 15; n++){
  58:../../../Resources_V12/Subroutines/Arithmetic.c **** if ((2*(rem))/Den){(res_LB) |= (1 << (15-n));sendChar('1');} else sendChar('0');
  59:../../../Resources_V12/Subroutines/Arithmetic.c **** rem = (2*(rem))%Den;}sendChar('\t');}
  60:../../../Resources_V12/Subroutines/Arithmetic.c **** 
  61:../../../Resources_V12/Subroutines/Arithmetic.c **** Result += res_LB;								//Result is not affected by the signs of rem and Den
  62:../../../Resources_V12/Subroutines/Arithmetic.c **** return Result;}
 1557               		.loc 3 62 0
 1558 0542 C501      		movw r24,r10
 1559 0544 B401      		movw r22,r8
 1560               	.LVL119:
 1561 0546 600F      		add r22,r16
 1562 0548 711F      		adc r23,r17
 1563 054a 811D      		adc r24,__zero_reg__
 1564 054c 911D      		adc r25,__zero_reg__
 1565               	.LVL120:
 1566               	/* epilogue start */
 1567 054e DF91      		pop r29
 1568 0550 CF91      		pop r28
 1569               	.LVL121:
 1570 0552 1F91      		pop r17
 1571 0554 0F91      		pop r16
 1572               	.LVL122:
 1573 0556 FF90      		pop r15
 1574 0558 EF90      		pop r14
 1575 055a DF90      		pop r13
 1576 055c CF90      		pop r12
 1577               	.LVL123:
 1578 055e BF90      		pop r11
 1579 0560 AF90      		pop r10
 1580 0562 9F90      		pop r9
 1581 0564 8F90      		pop r8
 1582 0566 7F90      		pop r7
 1583 0568 6F90      		pop r6
 1584 056a 5F90      		pop r5
 1585 056c 4F90      		pop r4
 1586               	.LVL124:
 1587 056e 3F90      		pop r3
 1588 0570 2F90      		pop r2
 1589 0572 0895      		ret
 1590               		.cfi_endproc
 1591               	.LFE54:
 1593               	.global	Binary_points_to_Decimal_Unsigned
 1595               	Binary_points_to_Decimal_Unsigned:
 1596               	.LFB55:
  63:../../../Resources_V12/Subroutines/Arithmetic.c **** 
  64:../../../Resources_V12/Subroutines/Arithmetic.c **** 
  65:../../../Resources_V12/Subroutines/Arithmetic.c **** /******************************************************************************/
  66:../../../Resources_V12/Subroutines/Arithmetic.c **** unsigned long Binary_points_to_Decimal_Unsigned (unsigned long RHSofBP)
  67:../../../Resources_V12/Subroutines/Arithmetic.c **** {unsigned long  RHSofDP=0;
 1597               		.loc 3 67 0
 1598               		.cfi_startproc
 1599               	.LVL125:
 1600 0574 2F92      		push r2
 1601               	.LCFI67:
 1602               		.cfi_def_cfa_offset 3
 1603               		.cfi_offset 2, -2
 1604 0576 3F92      		push r3
 1605               	.LCFI68:
 1606               		.cfi_def_cfa_offset 4
 1607               		.cfi_offset 3, -3
 1608 0578 4F92      		push r4
 1609               	.LCFI69:
 1610               		.cfi_def_cfa_offset 5
 1611               		.cfi_offset 4, -4
 1612 057a 5F92      		push r5
 1613               	.LCFI70:
 1614               		.cfi_def_cfa_offset 6
 1615               		.cfi_offset 5, -5
 1616 057c 6F92      		push r6
 1617               	.LCFI71:
 1618               		.cfi_def_cfa_offset 7
 1619               		.cfi_offset 6, -6
 1620 057e 7F92      		push r7
 1621               	.LCFI72:
 1622               		.cfi_def_cfa_offset 8
 1623               		.cfi_offset 7, -7
 1624 0580 8F92      		push r8
 1625               	.LCFI73:
 1626               		.cfi_def_cfa_offset 9
 1627               		.cfi_offset 8, -8
 1628 0582 9F92      		push r9
 1629               	.LCFI74:
 1630               		.cfi_def_cfa_offset 10
 1631               		.cfi_offset 9, -9
 1632 0584 AF92      		push r10
 1633               	.LCFI75:
 1634               		.cfi_def_cfa_offset 11
 1635               		.cfi_offset 10, -10
 1636 0586 BF92      		push r11
 1637               	.LCFI76:
 1638               		.cfi_def_cfa_offset 12
 1639               		.cfi_offset 11, -11
 1640 0588 CF92      		push r12
 1641               	.LCFI77:
 1642               		.cfi_def_cfa_offset 13
 1643               		.cfi_offset 12, -12
 1644 058a DF92      		push r13
 1645               	.LCFI78:
 1646               		.cfi_def_cfa_offset 14
 1647               		.cfi_offset 13, -13
 1648 058c EF92      		push r14
 1649               	.LCFI79:
 1650               		.cfi_def_cfa_offset 15
 1651               		.cfi_offset 14, -14
 1652 058e FF92      		push r15
 1653               	.LCFI80:
 1654               		.cfi_def_cfa_offset 16
 1655               		.cfi_offset 15, -15
 1656 0590 0F93      		push r16
 1657               	.LCFI81:
 1658               		.cfi_def_cfa_offset 17
 1659               		.cfi_offset 16, -16
 1660 0592 1F93      		push r17
 1661               	.LCFI82:
 1662               		.cfi_def_cfa_offset 18
 1663               		.cfi_offset 17, -17
 1664 0594 CF93      		push r28
 1665               	.LCFI83:
 1666               		.cfi_def_cfa_offset 19
 1667               		.cfi_offset 28, -18
 1668 0596 DF93      		push r29
 1669               	.LCFI84:
 1670               		.cfi_def_cfa_offset 20
 1671               		.cfi_offset 29, -19
 1672 0598 CDB7      		in r28,__SP_L__
 1673 059a DEB7      		in r29,__SP_H__
 1674               	.LCFI85:
 1675               		.cfi_def_cfa_register 28
 1676 059c E697      		sbiw r28,54
 1677               	.LCFI86:
 1678               		.cfi_def_cfa_offset 74
 1679 059e 0FB6      		in __tmp_reg__,__SREG__
 1680 05a0 F894      		cli
 1681 05a2 DEBF      		out __SP_H__,r29
 1682 05a4 0FBE      		out __SREG__,__tmp_reg__
 1683 05a6 CDBF      		out __SP_L__,r28
 1684               	/* prologue: function */
 1685               	/* frame size = 54 */
 1686               	/* stack size = 72 */
 1687               	.L__stack_usage = 72
 1688               	.LVL126:
  68:../../../Resources_V12/Subroutines/Arithmetic.c **** unsigned int RHSofBP_LB;
  69:../../../Resources_V12/Subroutines/Arithmetic.c **** RHSofBP_LB = RHSofBP;
 1689               		.loc 3 69 0
 1690 05a8 9B01      		movw r18,r22
 1691               	.LVL127:
 1692               	.LBB63:
  70:../../../Resources_V12/Subroutines/Arithmetic.c **** 
  71:../../../Resources_V12/Subroutines/Arithmetic.c **** for(int n = 0; n <= 15; n++){switch(n){
  72:../../../Resources_V12/Subroutines/Arithmetic.c **** case 0: if (RHSofBP>>16 & (1 << (15-n)))RHSofDP += 500000000; break;
  73:../../../Resources_V12/Subroutines/Arithmetic.c **** case 1: if (RHSofBP>>16 & (1 << (15-n)))RHSofDP += 250000000; break;
  74:../../../Resources_V12/Subroutines/Arithmetic.c **** case 2: if (RHSofBP>>16 & (1 << (15-n)))RHSofDP += 125000000; break;
  75:../../../Resources_V12/Subroutines/Arithmetic.c **** case 3: if (RHSofBP>>16 & (1 << (15-n)))RHSofDP += 62500000; break;
  76:../../../Resources_V12/Subroutines/Arithmetic.c **** case 4: if (RHSofBP>>16 & (1 << (15-n)))RHSofDP += 31250000; break;
  77:../../../Resources_V12/Subroutines/Arithmetic.c **** case 5: if (RHSofBP>>16 & (1 << (15-n)))RHSofDP += 15625000; break;
  78:../../../Resources_V12/Subroutines/Arithmetic.c **** case 6: if (RHSofBP>>16 & (1 << (15-n)))RHSofDP += 7812500; break;
  79:../../../Resources_V12/Subroutines/Arithmetic.c **** case 7: if (RHSofBP>>16 & (1 << (15-n)))RHSofDP += 3906250; break;
  80:../../../Resources_V12/Subroutines/Arithmetic.c **** case 8: if (RHSofBP>>16 & (1 << (15-n)))RHSofDP += 1953125; break;
  81:../../../Resources_V12/Subroutines/Arithmetic.c **** case 9: if (RHSofBP>>16 & (1 << (15-n)))RHSofDP += 976563; break;
  82:../../../Resources_V12/Subroutines/Arithmetic.c **** case 10: if (RHSofBP>>16 & (1 << (15-n)))RHSofDP += 488281; break;
  83:../../../Resources_V12/Subroutines/Arithmetic.c **** case 11: if (RHSofBP>>16 & (1 << (15-n)))RHSofDP += 244141; break;
  84:../../../Resources_V12/Subroutines/Arithmetic.c **** case 12: if (RHSofBP>>16 & (1 << (15-n)))RHSofDP += 122070; break;
  85:../../../Resources_V12/Subroutines/Arithmetic.c **** case 13: if (RHSofBP>>16 & (1 << (15-n)))RHSofDP += 61035; break;
  86:../../../Resources_V12/Subroutines/Arithmetic.c **** case 14: if (RHSofBP>>16 & (1 << (15-n)))RHSofDP += 30518; break;
  87:../../../Resources_V12/Subroutines/Arithmetic.c **** case 15: if (RHSofBP>>16 & (1 << (15-n)))RHSofDP += 15259; break;}}
 1693               		.loc 3 87 0
 1694 05aa AC01      		movw r20,r24
 1695 05ac 6627      		clr r22
 1696 05ae 7727      		clr r23
 1697 05b0 DB01      		movw r26,r22
 1698 05b2 CA01      		movw r24,r20
 1699 05b4 8170      		andi r24,1
 1700 05b6 9927      		clr r25
 1701 05b8 AA27      		clr r26
 1702 05ba BB27      		clr r27
 1703 05bc 8DA7      		std Y+45,r24
 1704 05be 9EA7      		std Y+46,r25
 1705 05c0 AFA7      		std Y+47,r26
 1706 05c2 B8AB      		std Y+48,r27
  72:../../../Resources_V12/Subroutines/Arithmetic.c **** case 1: if (RHSofBP>>16 & (1 << (15-n)))RHSofDP += 250000000; break;
 1707               		.loc 3 72 0
 1708 05c4 DB01      		movw r26,r22
 1709 05c6 CA01      		movw r24,r20
 1710 05c8 8827      		clr r24
 1711 05ca 9078      		andi r25,128
 1712 05cc 8983      		std Y+1,r24
 1713 05ce 9A83      		std Y+2,r25
 1714 05d0 AB83      		std Y+3,r26
 1715 05d2 BC83      		std Y+4,r27
  73:../../../Resources_V12/Subroutines/Arithmetic.c **** case 2: if (RHSofBP>>16 & (1 << (15-n)))RHSofDP += 125000000; break;
 1716               		.loc 3 73 0
 1717 05d4 DB01      		movw r26,r22
 1718 05d6 CA01      		movw r24,r20
 1719 05d8 8827      		clr r24
 1720 05da 9074      		andi r25,64
 1721 05dc AA27      		clr r26
 1722 05de BB27      		clr r27
 1723 05e0 8D83      		std Y+5,r24
 1724 05e2 9E83      		std Y+6,r25
 1725 05e4 AF83      		std Y+7,r26
 1726 05e6 B887      		std Y+8,r27
  74:../../../Resources_V12/Subroutines/Arithmetic.c **** case 3: if (RHSofBP>>16 & (1 << (15-n)))RHSofDP += 62500000; break;
 1727               		.loc 3 74 0
 1728 05e8 DB01      		movw r26,r22
 1729 05ea CA01      		movw r24,r20
 1730 05ec 8827      		clr r24
 1731 05ee 9072      		andi r25,32
 1732 05f0 AA27      		clr r26
 1733 05f2 BB27      		clr r27
 1734 05f4 8987      		std Y+9,r24
 1735 05f6 9A87      		std Y+10,r25
 1736 05f8 AB87      		std Y+11,r26
 1737 05fa BC87      		std Y+12,r27
  75:../../../Resources_V12/Subroutines/Arithmetic.c **** case 4: if (RHSofBP>>16 & (1 << (15-n)))RHSofDP += 31250000; break;
 1738               		.loc 3 75 0
 1739 05fc DB01      		movw r26,r22
 1740 05fe CA01      		movw r24,r20
 1741 0600 8827      		clr r24
 1742 0602 9071      		andi r25,16
 1743 0604 AA27      		clr r26
 1744 0606 BB27      		clr r27
 1745 0608 8D87      		std Y+13,r24
 1746 060a 9E87      		std Y+14,r25
 1747 060c AF87      		std Y+15,r26
 1748 060e B88B      		std Y+16,r27
  76:../../../Resources_V12/Subroutines/Arithmetic.c **** case 5: if (RHSofBP>>16 & (1 << (15-n)))RHSofDP += 15625000; break;
 1749               		.loc 3 76 0
 1750 0610 DB01      		movw r26,r22
 1751 0612 CA01      		movw r24,r20
 1752 0614 8827      		clr r24
 1753 0616 9870      		andi r25,8
 1754 0618 AA27      		clr r26
 1755 061a BB27      		clr r27
 1756 061c 898B      		std Y+17,r24
 1757 061e 9A8B      		std Y+18,r25
 1758 0620 AB8B      		std Y+19,r26
 1759 0622 BC8B      		std Y+20,r27
  77:../../../Resources_V12/Subroutines/Arithmetic.c **** case 6: if (RHSofBP>>16 & (1 << (15-n)))RHSofDP += 7812500; break;
 1760               		.loc 3 77 0
 1761 0624 DB01      		movw r26,r22
 1762 0626 CA01      		movw r24,r20
 1763 0628 8827      		clr r24
 1764 062a 9470      		andi r25,4
 1765 062c AA27      		clr r26
 1766 062e BB27      		clr r27
 1767 0630 8D8B      		std Y+21,r24
 1768 0632 9E8B      		std Y+22,r25
 1769 0634 AF8B      		std Y+23,r26
 1770 0636 B88F      		std Y+24,r27
  78:../../../Resources_V12/Subroutines/Arithmetic.c **** case 7: if (RHSofBP>>16 & (1 << (15-n)))RHSofDP += 3906250; break;
 1771               		.loc 3 78 0
 1772 0638 DB01      		movw r26,r22
 1773 063a CA01      		movw r24,r20
 1774 063c 8827      		clr r24
 1775 063e 9270      		andi r25,2
 1776 0640 AA27      		clr r26
 1777 0642 BB27      		clr r27
 1778 0644 898F      		std Y+25,r24
 1779 0646 9A8F      		std Y+26,r25
 1780 0648 AB8F      		std Y+27,r26
 1781 064a BC8F      		std Y+28,r27
  79:../../../Resources_V12/Subroutines/Arithmetic.c **** case 8: if (RHSofBP>>16 & (1 << (15-n)))RHSofDP += 1953125; break;
 1782               		.loc 3 79 0
 1783 064c DB01      		movw r26,r22
 1784 064e CA01      		movw r24,r20
 1785 0650 8827      		clr r24
 1786 0652 9170      		andi r25,1
 1787 0654 AA27      		clr r26
 1788 0656 BB27      		clr r27
 1789 0658 8D8F      		std Y+29,r24
 1790 065a 9E8F      		std Y+30,r25
 1791 065c AF8F      		std Y+31,r26
 1792 065e B8A3      		std Y+32,r27
  80:../../../Resources_V12/Subroutines/Arithmetic.c **** case 9: if (RHSofBP>>16 & (1 << (15-n)))RHSofDP += 976563; break;
 1793               		.loc 3 80 0
 1794 0660 DB01      		movw r26,r22
 1795 0662 CA01      		movw r24,r20
 1796 0664 8078      		andi r24,128
 1797 0666 9927      		clr r25
 1798 0668 AA27      		clr r26
 1799 066a BB27      		clr r27
 1800 066c 89A3      		std Y+33,r24
 1801 066e 9AA3      		std Y+34,r25
 1802 0670 ABA3      		std Y+35,r26
 1803 0672 BCA3      		std Y+36,r27
  81:../../../Resources_V12/Subroutines/Arithmetic.c **** case 10: if (RHSofBP>>16 & (1 << (15-n)))RHSofDP += 488281; break;
 1804               		.loc 3 81 0
 1805 0674 DB01      		movw r26,r22
 1806 0676 CA01      		movw r24,r20
 1807 0678 8074      		andi r24,64
 1808 067a 9927      		clr r25
 1809 067c AA27      		clr r26
 1810 067e BB27      		clr r27
 1811 0680 8DA3      		std Y+37,r24
 1812 0682 9EA3      		std Y+38,r25
 1813 0684 AFA3      		std Y+39,r26
 1814 0686 B8A7      		std Y+40,r27
  82:../../../Resources_V12/Subroutines/Arithmetic.c **** case 11: if (RHSofBP>>16 & (1 << (15-n)))RHSofDP += 244141; break;
 1815               		.loc 3 82 0
 1816 0688 DB01      		movw r26,r22
 1817 068a CA01      		movw r24,r20
 1818 068c 8072      		andi r24,32
 1819 068e 9927      		clr r25
 1820 0690 AA27      		clr r26
 1821 0692 BB27      		clr r27
 1822 0694 89A7      		std Y+41,r24
 1823 0696 9AA7      		std Y+42,r25
 1824 0698 ABA7      		std Y+43,r26
 1825 069a BCA7      		std Y+44,r27
  83:../../../Resources_V12/Subroutines/Arithmetic.c **** case 12: if (RHSofBP>>16 & (1 << (15-n)))RHSofDP += 122070; break;
 1826               		.loc 3 83 0
 1827 069c DB01      		movw r26,r22
 1828 069e CA01      		movw r24,r20
 1829 06a0 8071      		andi r24,16
 1830 06a2 9927      		clr r25
 1831 06a4 AA27      		clr r26
 1832 06a6 BB27      		clr r27
 1833 06a8 8BAB      		std Y+51,r24
 1834 06aa 9CAB      		std Y+52,r25
 1835 06ac ADAB      		std Y+53,r26
 1836 06ae BEAB      		std Y+54,r27
  84:../../../Resources_V12/Subroutines/Arithmetic.c **** case 13: if (RHSofBP>>16 & (1 << (15-n)))RHSofDP += 61035; break;
 1837               		.loc 3 84 0
 1838 06b0 4A01      		movw r8,r20
 1839 06b2 5B01      		movw r10,r22
 1840 06b4 98E0      		ldi r25,8
 1841 06b6 8922      		and r8,r25
 1842 06b8 9924      		clr r9
 1843 06ba AA24      		clr r10
 1844 06bc BB24      		clr r11
  85:../../../Resources_V12/Subroutines/Arithmetic.c **** case 14: if (RHSofBP>>16 & (1 << (15-n)))RHSofDP += 30518; break;
 1845               		.loc 3 85 0
 1846 06be 2A01      		movw r4,r20
 1847 06c0 3B01      		movw r6,r22
 1848 06c2 A4E0      		ldi r26,4
 1849 06c4 4A22      		and r4,r26
 1850 06c6 5524      		clr r5
 1851 06c8 6624      		clr r6
 1852 06ca 7724      		clr r7
  86:../../../Resources_V12/Subroutines/Arithmetic.c **** case 15: if (RHSofBP>>16 & (1 << (15-n)))RHSofDP += 15259; break;}}
 1853               		.loc 3 86 0
 1854 06cc 4270      		andi r20,2
 1855 06ce 5527      		clr r21
 1856 06d0 6627      		clr r22
 1857 06d2 7727      		clr r23
  71:../../../Resources_V12/Subroutines/Arithmetic.c **** case 0: if (RHSofBP>>16 & (1 << (15-n)))RHSofDP += 500000000; break;
 1858               		.loc 3 71 0
 1859 06d4 C12C      		mov r12,__zero_reg__
 1860 06d6 D12C      		mov r13,__zero_reg__
 1861               	.LBE63:
  67:../../../Resources_V12/Subroutines/Arithmetic.c **** unsigned int RHSofBP_LB;
 1862               		.loc 3 67 0
 1863 06d8 80E0      		ldi r24,0
 1864 06da 90E0      		ldi r25,0
 1865 06dc DC01      		movw r26,r24
 1866               	.LVL128:
 1867               	.L137:
 1868               	.LBB64:
  71:../../../Resources_V12/Subroutines/Arithmetic.c **** case 0: if (RHSofBP>>16 & (1 << (15-n)))RHSofDP += 500000000; break;
 1869               		.loc 3 71 0 discriminator 4
 1870 06de F601      		movw r30,r12
 1871 06e0 3197      		sbiw r30,1
 1872 06e2 EF30      		cpi r30,15
 1873 06e4 F105      		cpc r31,__zero_reg__
 1874 06e6 00F4      		brsh .L119
 1875 06e8 E050      		subi r30,lo8(-(gs(.L121)))
 1876 06ea F040      		sbci r31,hi8(-(gs(.L121)))
 1877 06ec 0C94 0000 		jmp __tablejump2__
 1878               		.section	.progmem.gcc_sw_table,"a",@progbits
 1879               		.p2align	1
 1880               	.L121:
 1881 0000 0000      		.word gs(.L120)
 1882 0002 0000      		.word gs(.L122)
 1883 0004 0000      		.word gs(.L123)
 1884 0006 0000      		.word gs(.L124)
 1885 0008 0000      		.word gs(.L125)
 1886 000a 0000      		.word gs(.L126)
 1887 000c 0000      		.word gs(.L127)
 1888 000e 0000      		.word gs(.L128)
 1889 0010 0000      		.word gs(.L129)
 1890 0012 0000      		.word gs(.L130)
 1891 0014 0000      		.word gs(.L131)
 1892 0016 0000      		.word gs(.L132)
 1893 0018 0000      		.word gs(.L133)
 1894 001a 0000      		.word gs(.L134)
 1895 001c 0000      		.word gs(.L135)
 1896               		.text
 1897               	.L119:
  72:../../../Resources_V12/Subroutines/Arithmetic.c **** case 1: if (RHSofBP>>16 & (1 << (15-n)))RHSofDP += 250000000; break;
 1898               		.loc 3 72 0
 1899 06f0 E980      		ldd r14,Y+1
 1900 06f2 FA80      		ldd r15,Y+2
 1901 06f4 0B81      		ldd r16,Y+3
 1902 06f6 1C81      		ldd r17,Y+4
 1903 06f8 EF28      		or r14,r15
 1904 06fa E02A      		or r14,r16
 1905 06fc E12A      		or r14,r17
 1906 06fe 01F4      		brne .+2
 1907 0700 00C0      		rjmp .L136
  72:../../../Resources_V12/Subroutines/Arithmetic.c **** case 1: if (RHSofBP>>16 & (1 << (15-n)))RHSofDP += 250000000; break;
 1908               		.loc 3 72 0 is_stmt 0 discriminator 1
 1909 0702 9B59      		subi r25,-101
 1910 0704 A243      		sbci r26,50
 1911 0706 B24E      		sbci r27,-30
 1912               	.LVL129:
 1913 0708 00C0      		rjmp .L136
 1914               	.L120:
  73:../../../Resources_V12/Subroutines/Arithmetic.c **** case 2: if (RHSofBP>>16 & (1 << (15-n)))RHSofDP += 125000000; break;
 1915               		.loc 3 73 0 is_stmt 1
 1916 070a ED80      		ldd r14,Y+5
 1917 070c FE80      		ldd r15,Y+6
 1918 070e 0F81      		ldd r16,Y+7
 1919 0710 1885      		ldd r17,Y+8
 1920 0712 EF28      		or r14,r15
 1921 0714 E02A      		or r14,r16
 1922 0716 E12A      		or r14,r17
 1923 0718 01F4      		brne .+2
 1924 071a 00C0      		rjmp .L136
  73:../../../Resources_V12/Subroutines/Arithmetic.c **** case 2: if (RHSofBP>>16 & (1 << (15-n)))RHSofDP += 125000000; break;
 1925               		.loc 3 73 0 is_stmt 0 discriminator 1
 1926 071c 8058      		subi r24,-128
 1927 071e 9D44      		sbci r25,77
 1928 0720 A941      		sbci r26,25
 1929 0722 B14F      		sbci r27,-15
 1930               	.LVL130:
 1931 0724 00C0      		rjmp .L136
 1932               	.L122:
  74:../../../Resources_V12/Subroutines/Arithmetic.c **** case 3: if (RHSofBP>>16 & (1 << (15-n)))RHSofDP += 62500000; break;
 1933               		.loc 3 74 0 is_stmt 1
 1934 0726 E984      		ldd r14,Y+9
 1935 0728 FA84      		ldd r15,Y+10
 1936 072a 0B85      		ldd r16,Y+11
 1937 072c 1C85      		ldd r17,Y+12
 1938 072e EF28      		or r14,r15
 1939 0730 E02A      		or r14,r16
 1940 0732 E12A      		or r14,r17
 1941 0734 01F4      		brne .+2
 1942 0736 00C0      		rjmp .L136
  74:../../../Resources_V12/Subroutines/Arithmetic.c **** case 3: if (RHSofBP>>16 & (1 << (15-n)))RHSofDP += 62500000; break;
 1943               		.loc 3 74 0 is_stmt 0 discriminator 1
 1944 0738 805C      		subi r24,-64
 1945 073a 964A      		sbci r25,-90
 1946 073c AC48      		sbci r26,-116
 1947 073e B84F      		sbci r27,-8
 1948               	.LVL131:
 1949 0740 00C0      		rjmp .L136
 1950               	.L123:
  75:../../../Resources_V12/Subroutines/Arithmetic.c **** case 4: if (RHSofBP>>16 & (1 << (15-n)))RHSofDP += 31250000; break;
 1951               		.loc 3 75 0 is_stmt 1
 1952 0742 ED84      		ldd r14,Y+13
 1953 0744 FE84      		ldd r15,Y+14
 1954 0746 0F85      		ldd r16,Y+15
 1955 0748 1889      		ldd r17,Y+16
 1956 074a EF28      		or r14,r15
 1957 074c E02A      		or r14,r16
 1958 074e E12A      		or r14,r17
 1959 0750 01F4      		brne .+2
 1960 0752 00C0      		rjmp .L136
  75:../../../Resources_V12/Subroutines/Arithmetic.c **** case 4: if (RHSofBP>>16 & (1 << (15-n)))RHSofDP += 31250000; break;
 1961               		.loc 3 75 0 is_stmt 0 discriminator 1
 1962 0754 8056      		subi r24,96
 1963 0756 9345      		sbci r25,83
 1964 0758 A644      		sbci r26,70
 1965 075a BC4F      		sbci r27,-4
 1966               	.LVL132:
 1967 075c 00C0      		rjmp .L136
 1968               	.L124:
  76:../../../Resources_V12/Subroutines/Arithmetic.c **** case 5: if (RHSofBP>>16 & (1 << (15-n)))RHSofDP += 15625000; break;
 1969               		.loc 3 76 0 is_stmt 1
 1970 075e E988      		ldd r14,Y+17
 1971 0760 FA88      		ldd r15,Y+18
 1972 0762 0B89      		ldd r16,Y+19
 1973 0764 1C89      		ldd r17,Y+20
 1974 0766 EF28      		or r14,r15
 1975 0768 E02A      		or r14,r16
 1976 076a E12A      		or r14,r17
 1977 076c 01F4      		brne .+2
 1978 076e 00C0      		rjmp .L136
  76:../../../Resources_V12/Subroutines/Arithmetic.c **** case 5: if (RHSofBP>>16 & (1 << (15-n)))RHSofDP += 15625000; break;
 1979               		.loc 3 76 0 is_stmt 0 discriminator 1
 1980 0770 805B      		subi r24,-80
 1981 0772 9942      		sbci r25,41
 1982 0774 A342      		sbci r26,35
 1983 0776 BE4F      		sbci r27,-2
 1984               	.LVL133:
 1985 0778 00C0      		rjmp .L136
 1986               	.L125:
  77:../../../Resources_V12/Subroutines/Arithmetic.c **** case 6: if (RHSofBP>>16 & (1 << (15-n)))RHSofDP += 7812500; break;
 1987               		.loc 3 77 0 is_stmt 1
 1988 077a ED88      		ldd r14,Y+21
 1989 077c FE88      		ldd r15,Y+22
 1990 077e 0F89      		ldd r16,Y+23
 1991 0780 188D      		ldd r17,Y+24
 1992 0782 EF28      		or r14,r15
 1993 0784 E02A      		or r14,r16
 1994 0786 E12A      		or r14,r17
 1995 0788 01F4      		brne .+2
 1996 078a 00C0      		rjmp .L136
  77:../../../Resources_V12/Subroutines/Arithmetic.c **** case 6: if (RHSofBP>>16 & (1 << (15-n)))RHSofDP += 7812500; break;
 1997               		.loc 3 77 0 is_stmt 0 discriminator 1
 1998 078c 885D      		subi r24,-40
 1999 078e 9449      		sbci r25,-108
 2000 0790 A141      		sbci r26,17
 2001 0792 BF4F      		sbci r27,-1
 2002               	.LVL134:
 2003 0794 00C0      		rjmp .L136
 2004               	.L126:
  78:../../../Resources_V12/Subroutines/Arithmetic.c **** case 7: if (RHSofBP>>16 & (1 << (15-n)))RHSofDP += 3906250; break;
 2005               		.loc 3 78 0 is_stmt 1
 2006 0796 E98C      		ldd r14,Y+25
 2007 0798 FA8C      		ldd r15,Y+26
 2008 079a 0B8D      		ldd r16,Y+27
 2009 079c 1C8D      		ldd r17,Y+28
 2010 079e EF28      		or r14,r15
 2011 07a0 E02A      		or r14,r16
 2012 07a2 E12A      		or r14,r17
 2013 07a4 01F4      		brne .+2
 2014 07a6 00C0      		rjmp .L136
  78:../../../Resources_V12/Subroutines/Arithmetic.c **** case 7: if (RHSofBP>>16 & (1 << (15-n)))RHSofDP += 3906250; break;
 2015               		.loc 3 78 0 is_stmt 0 discriminator 1
 2016 07a8 8C56      		subi r24,108
 2017 07aa 9A4C      		sbci r25,-54
 2018 07ac A848      		sbci r26,-120
 2019 07ae BF4F      		sbci r27,-1
 2020               	.LVL135:
 2021 07b0 00C0      		rjmp .L136
 2022               	.L127:
  79:../../../Resources_V12/Subroutines/Arithmetic.c **** case 8: if (RHSofBP>>16 & (1 << (15-n)))RHSofDP += 1953125; break;
 2023               		.loc 3 79 0 is_stmt 1
 2024 07b2 ED8C      		ldd r14,Y+29
 2025 07b4 FE8C      		ldd r15,Y+30
 2026 07b6 0F8D      		ldd r16,Y+31
 2027 07b8 18A1      		ldd r17,Y+32
 2028 07ba EF28      		or r14,r15
 2029 07bc E02A      		or r14,r16
 2030 07be E12A      		or r14,r17
 2031 07c0 01F4      		brne .+2
 2032 07c2 00C0      		rjmp .L136
  79:../../../Resources_V12/Subroutines/Arithmetic.c **** case 8: if (RHSofBP>>16 & (1 << (15-n)))RHSofDP += 1953125; break;
 2033               		.loc 3 79 0 is_stmt 0 discriminator 1
 2034 07c4 8653      		subi r24,54
 2035 07c6 9546      		sbci r25,101
 2036 07c8 A44C      		sbci r26,-60
 2037 07ca BF4F      		sbci r27,-1
 2038               	.LVL136:
 2039 07cc 00C0      		rjmp .L136
 2040               	.L128:
  80:../../../Resources_V12/Subroutines/Arithmetic.c **** case 9: if (RHSofBP>>16 & (1 << (15-n)))RHSofDP += 976563; break;
 2041               		.loc 3 80 0 is_stmt 1
 2042 07ce E9A0      		ldd r14,Y+33
 2043 07d0 FAA0      		ldd r15,Y+34
 2044 07d2 0BA1      		ldd r16,Y+35
 2045 07d4 1CA1      		ldd r17,Y+36
 2046 07d6 EF28      		or r14,r15
 2047 07d8 E02A      		or r14,r16
 2048 07da E12A      		or r14,r17
 2049 07dc 01F4      		brne .+2
 2050 07de 00C0      		rjmp .L136
  80:../../../Resources_V12/Subroutines/Arithmetic.c **** case 9: if (RHSofBP>>16 & (1 << (15-n)))RHSofDP += 976563; break;
 2051               		.loc 3 80 0 is_stmt 0 discriminator 1
 2052 07e0 8B59      		subi r24,-101
 2053 07e2 9243      		sbci r25,50
 2054 07e4 A24E      		sbci r26,-30
 2055 07e6 BF4F      		sbci r27,-1
 2056               	.LVL137:
 2057 07e8 00C0      		rjmp .L136
 2058               	.L129:
  81:../../../Resources_V12/Subroutines/Arithmetic.c **** case 10: if (RHSofBP>>16 & (1 << (15-n)))RHSofDP += 488281; break;
 2059               		.loc 3 81 0 is_stmt 1
 2060 07ea EDA0      		ldd r14,Y+37
 2061 07ec FEA0      		ldd r15,Y+38
 2062 07ee 0FA1      		ldd r16,Y+39
 2063 07f0 18A5      		ldd r17,Y+40
 2064 07f2 EF28      		or r14,r15
 2065 07f4 E02A      		or r14,r16
 2066 07f6 E12A      		or r14,r17
 2067 07f8 01F4      		brne .+2
 2068 07fa 00C0      		rjmp .L136
  81:../../../Resources_V12/Subroutines/Arithmetic.c **** case 10: if (RHSofBP>>16 & (1 << (15-n)))RHSofDP += 488281; break;
 2069               		.loc 3 81 0 is_stmt 0 discriminator 1
 2070 07fc 8D54      		subi r24,77
 2071 07fe 9941      		sbci r25,25
 2072 0800 A14F      		sbci r26,-15
 2073 0802 BF4F      		sbci r27,-1
 2074               	.LVL138:
 2075 0804 00C0      		rjmp .L136
 2076               	.L130:
  82:../../../Resources_V12/Subroutines/Arithmetic.c **** case 11: if (RHSofBP>>16 & (1 << (15-n)))RHSofDP += 244141; break;
 2077               		.loc 3 82 0 is_stmt 1
 2078 0806 E9A4      		ldd r14,Y+41
 2079 0808 FAA4      		ldd r15,Y+42
 2080 080a 0BA5      		ldd r16,Y+43
 2081 080c 1CA5      		ldd r17,Y+44
 2082 080e EF28      		or r14,r15
 2083 0810 E02A      		or r14,r16
 2084 0812 E12A      		or r14,r17
 2085 0814 01F0      		breq .L136
  82:../../../Resources_V12/Subroutines/Arithmetic.c **** case 11: if (RHSofBP>>16 & (1 << (15-n)))RHSofDP += 244141; break;
 2086               		.loc 3 82 0 is_stmt 0 discriminator 1
 2087 0816 875A      		subi r24,-89
 2088 0818 9C48      		sbci r25,-116
 2089 081a A84F      		sbci r26,-8
 2090 081c BF4F      		sbci r27,-1
 2091               	.LVL139:
 2092 081e 00C0      		rjmp .L136
 2093               	.L131:
  83:../../../Resources_V12/Subroutines/Arithmetic.c **** case 12: if (RHSofBP>>16 & (1 << (15-n)))RHSofDP += 122070; break;
 2094               		.loc 3 83 0 is_stmt 1
 2095 0820 EBA8      		ldd r14,Y+51
 2096 0822 FCA8      		ldd r15,Y+52
 2097 0824 0DA9      		ldd r16,Y+53
 2098 0826 1EA9      		ldd r17,Y+54
 2099 0828 EF28      		or r14,r15
 2100 082a E02A      		or r14,r16
 2101 082c E12A      		or r14,r17
 2102 082e 01F0      		breq .L136
  83:../../../Resources_V12/Subroutines/Arithmetic.c **** case 12: if (RHSofBP>>16 & (1 << (15-n)))RHSofDP += 122070; break;
 2103               		.loc 3 83 0 is_stmt 0 discriminator 1
 2104 0830 8355      		subi r24,83
 2105 0832 9644      		sbci r25,70
 2106 0834 AC4F      		sbci r26,-4
 2107 0836 BF4F      		sbci r27,-1
 2108               	.LVL140:
 2109 0838 00C0      		rjmp .L136
 2110               	.L132:
  84:../../../Resources_V12/Subroutines/Arithmetic.c **** case 13: if (RHSofBP>>16 & (1 << (15-n)))RHSofDP += 61035; break;
 2111               		.loc 3 84 0 is_stmt 1
 2112 083a 8114      		cp r8,__zero_reg__
 2113 083c 9104      		cpc r9,__zero_reg__
 2114 083e A104      		cpc r10,__zero_reg__
 2115 0840 B104      		cpc r11,__zero_reg__
 2116 0842 01F0      		breq .L136
  84:../../../Resources_V12/Subroutines/Arithmetic.c **** case 13: if (RHSofBP>>16 & (1 << (15-n)))RHSofDP += 61035; break;
 2117               		.loc 3 84 0 is_stmt 0 discriminator 1
 2118 0844 8A52      		subi r24,42
 2119 0846 9342      		sbci r25,35
 2120 0848 AE4F      		sbci r26,-2
 2121 084a BF4F      		sbci r27,-1
 2122               	.LVL141:
 2123 084c 00C0      		rjmp .L136
 2124               	.L133:
  85:../../../Resources_V12/Subroutines/Arithmetic.c **** case 14: if (RHSofBP>>16 & (1 << (15-n)))RHSofDP += 30518; break;
 2125               		.loc 3 85 0 is_stmt 1
 2126 084e 4114      		cp r4,__zero_reg__
 2127 0850 5104      		cpc r5,__zero_reg__
 2128 0852 6104      		cpc r6,__zero_reg__
 2129 0854 7104      		cpc r7,__zero_reg__
 2130 0856 01F0      		breq .L136
  85:../../../Resources_V12/Subroutines/Arithmetic.c **** case 14: if (RHSofBP>>16 & (1 << (15-n)))RHSofDP += 30518; break;
 2131               		.loc 3 85 0 is_stmt 0 discriminator 1
 2132 0858 8559      		subi r24,-107
 2133 085a 9141      		sbci r25,17
 2134 085c AF4F      		sbci r26,-1
 2135 085e BF4F      		sbci r27,-1
 2136               	.LVL142:
 2137 0860 00C0      		rjmp .L136
 2138               	.L134:
  86:../../../Resources_V12/Subroutines/Arithmetic.c **** case 15: if (RHSofBP>>16 & (1 << (15-n)))RHSofDP += 15259; break;}}
 2139               		.loc 3 86 0 is_stmt 1
 2140 0862 4115      		cp r20,__zero_reg__
 2141 0864 5105      		cpc r21,__zero_reg__
 2142 0866 6105      		cpc r22,__zero_reg__
 2143 0868 7105      		cpc r23,__zero_reg__
 2144 086a 01F0      		breq .L136
  86:../../../Resources_V12/Subroutines/Arithmetic.c **** case 15: if (RHSofBP>>16 & (1 << (15-n)))RHSofDP += 15259; break;}}
 2145               		.loc 3 86 0 is_stmt 0 discriminator 1
 2146 086c 8A5C      		subi r24,-54
 2147 086e 9848      		sbci r25,-120
 2148 0870 AF4F      		sbci r26,-1
 2149 0872 BF4F      		sbci r27,-1
 2150               	.LVL143:
 2151 0874 00C0      		rjmp .L136
 2152               	.L135:
 2153               		.loc 3 87 0 is_stmt 1
 2154 0876 EDA4      		ldd r14,Y+45
 2155 0878 FEA4      		ldd r15,Y+46
 2156 087a 0FA5      		ldd r16,Y+47
 2157 087c 18A9      		ldd r17,Y+48
 2158 087e EF28      		or r14,r15
 2159 0880 E02A      		or r14,r16
 2160 0882 E12A      		or r14,r17
 2161 0884 01F0      		breq .L136
 2162               		.loc 3 87 0 is_stmt 0 discriminator 1
 2163 0886 8556      		subi r24,101
 2164 0888 944C      		sbci r25,-60
 2165 088a AF4F      		sbci r26,-1
 2166 088c BF4F      		sbci r27,-1
 2167               	.LVL144:
 2168               	.L136:
  71:../../../Resources_V12/Subroutines/Arithmetic.c **** case 0: if (RHSofBP>>16 & (1 << (15-n)))RHSofDP += 500000000; break;
 2169               		.loc 3 71 0 is_stmt 1 discriminator 2
 2170 088e 0FEF      		ldi r16,-1
 2171 0890 C01A      		sub r12,r16
 2172 0892 D00A      		sbc r13,r16
 2173               	.LVL145:
 2174 0894 10E1      		ldi r17,16
 2175 0896 C116      		cp r12,r17
 2176 0898 D104      		cpc r13,__zero_reg__
 2177 089a 01F0      		breq .+2
 2178 089c 00C0      		rjmp .L137
 2179 089e 40E0      		ldi r20,0
 2180 08a0 50E0      		ldi r21,0
 2181               	.LBE64:
 2182               	.LBB65:
  88:../../../Resources_V12/Subroutines/Arithmetic.c **** for(int n = 0; n <= 15; n++){switch (n){
  89:../../../Resources_V12/Subroutines/Arithmetic.c **** case 0: if (RHSofBP_LB & (1 << (15-n)))RHSofDP += 7629; break;
  90:../../../Resources_V12/Subroutines/Arithmetic.c **** case 1: if (RHSofBP_LB & (1 << (15-n)))RHSofDP += 3815; break;
  91:../../../Resources_V12/Subroutines/Arithmetic.c **** case 2: if (RHSofBP_LB & (1 << (15-n)))RHSofDP += 1907; break;
  92:../../../Resources_V12/Subroutines/Arithmetic.c **** case 3: if (RHSofBP_LB & (1 << (15-n)))RHSofDP += 954; break;
  93:../../../Resources_V12/Subroutines/Arithmetic.c **** case 4: if (RHSofBP_LB & (1 << (15-n)))RHSofDP += 477; break;
  94:../../../Resources_V12/Subroutines/Arithmetic.c **** case 5: if (RHSofBP_LB & (1 << (15-n)))RHSofDP += 238; break;
  95:../../../Resources_V12/Subroutines/Arithmetic.c **** case 6: if (RHSofBP_LB & (1 << (15-n)))RHSofDP += 119; break;
  96:../../../Resources_V12/Subroutines/Arithmetic.c **** case 7: if (RHSofBP_LB & (1 << (15-n)))RHSofDP += 60; break;
  97:../../../Resources_V12/Subroutines/Arithmetic.c **** case 8: if (RHSofBP_LB & (1 << (15-n)))RHSofDP += 30; break;
  98:../../../Resources_V12/Subroutines/Arithmetic.c **** case 9: if (RHSofBP_LB & (1 << (15-n)))RHSofDP += 15; break;
  99:../../../Resources_V12/Subroutines/Arithmetic.c **** case 10: if (RHSofBP_LB & (1 << (15-n)))RHSofDP += 7; break;
 100:../../../Resources_V12/Subroutines/Arithmetic.c **** case 11: if (RHSofBP_LB & (1 << (15-n)))RHSofDP += 4; break;
 101:../../../Resources_V12/Subroutines/Arithmetic.c **** case 12: if (RHSofBP_LB & (1 << (15-n)))RHSofDP += 2; break;
 102:../../../Resources_V12/Subroutines/Arithmetic.c **** case 13: if (RHSofBP_LB & (1 << (15-n)))RHSofDP += 1; break;
 2183               		.loc 3 102 0 discriminator 4
 2184 08a2 B901      		movw r22,r18
 2185               	.LVL146:
 2186 08a4 6470      		andi r22,4
 2187 08a6 7727      		clr r23
 2188 08a8 7A83      		std Y+2,r23
 2189 08aa 6983      		std Y+1,r22
 101:../../../Resources_V12/Subroutines/Arithmetic.c **** case 13: if (RHSofBP_LB & (1 << (15-n)))RHSofDP += 1; break;
 2190               		.loc 3 101 0 discriminator 4
 2191 08ac 8901      		movw r16,r18
 2192 08ae 0870      		andi r16,8
 2193 08b0 1127      		clr r17
 2194 08b2 1E83      		std Y+6,r17
 2195 08b4 0D83      		std Y+5,r16
 100:../../../Resources_V12/Subroutines/Arithmetic.c **** case 12: if (RHSofBP_LB & (1 << (15-n)))RHSofDP += 2; break;
 2196               		.loc 3 100 0 discriminator 4
 2197 08b6 B901      		movw r22,r18
 2198 08b8 6071      		andi r22,16
 2199 08ba 7727      		clr r23
 2200 08bc 7A87      		std Y+10,r23
 2201 08be 6987      		std Y+9,r22
  99:../../../Resources_V12/Subroutines/Arithmetic.c **** case 11: if (RHSofBP_LB & (1 << (15-n)))RHSofDP += 4; break;
 2202               		.loc 3 99 0 discriminator 4
 2203 08c0 1901      		movw r2,r18
 2204 08c2 70E2      		ldi r23,32
 2205 08c4 2722      		and r2,r23
 2206 08c6 3324      		clr r3
  98:../../../Resources_V12/Subroutines/Arithmetic.c **** case 10: if (RHSofBP_LB & (1 << (15-n)))RHSofDP += 7; break;
 2207               		.loc 3 98 0 discriminator 4
 2208 08c8 8901      		movw r16,r18
 2209 08ca 0074      		andi r16,64
 2210 08cc 1127      		clr r17
  97:../../../Resources_V12/Subroutines/Arithmetic.c **** case 9: if (RHSofBP_LB & (1 << (15-n)))RHSofDP += 15; break;
 2211               		.loc 3 97 0 discriminator 4
 2212 08ce 2901      		movw r4,r18
 2213 08d0 E0E8      		ldi r30,128
 2214 08d2 4E22      		and r4,r30
 2215 08d4 5524      		clr r5
  96:../../../Resources_V12/Subroutines/Arithmetic.c **** case 8: if (RHSofBP_LB & (1 << (15-n)))RHSofDP += 30; break;
 2216               		.loc 3 96 0 discriminator 4
 2217 08d6 3901      		movw r6,r18
 2218 08d8 6624      		clr r6
 2219 08da F1E0      		ldi r31,1
 2220 08dc 7F22      		and r7,r31
  95:../../../Resources_V12/Subroutines/Arithmetic.c **** case 7: if (RHSofBP_LB & (1 << (15-n)))RHSofDP += 60; break;
 2221               		.loc 3 95 0 discriminator 4
 2222 08de 4901      		movw r8,r18
 2223 08e0 8824      		clr r8
 2224 08e2 62E0      		ldi r22,2
 2225 08e4 9622      		and r9,r22
  94:../../../Resources_V12/Subroutines/Arithmetic.c **** case 6: if (RHSofBP_LB & (1 << (15-n)))RHSofDP += 119; break;
 2226               		.loc 3 94 0 discriminator 4
 2227 08e6 B901      		movw r22,r18
 2228 08e8 6627      		clr r22
 2229 08ea 7470      		andi r23,4
  93:../../../Resources_V12/Subroutines/Arithmetic.c **** case 5: if (RHSofBP_LB & (1 << (15-n)))RHSofDP += 238; break;
 2230               		.loc 3 93 0 discriminator 4
 2231 08ec F901      		movw r30,r18
 2232 08ee EE27      		clr r30
 2233 08f0 F870      		andi r31,8
 2234 08f2 FE87      		std Y+14,r31
 2235 08f4 ED87      		std Y+13,r30
  92:../../../Resources_V12/Subroutines/Arithmetic.c **** case 4: if (RHSofBP_LB & (1 << (15-n)))RHSofDP += 477; break;
 2236               		.loc 3 92 0 discriminator 4
 2237 08f6 7901      		movw r14,r18
 2238 08f8 EE24      		clr r14
 2239 08fa F0E1      		ldi r31,16
 2240 08fc FF22      		and r15,r31
  91:../../../Resources_V12/Subroutines/Arithmetic.c **** case 3: if (RHSofBP_LB & (1 << (15-n)))RHSofDP += 954; break;
 2241               		.loc 3 91 0 discriminator 4
 2242 08fe 6901      		movw r12,r18
 2243               	.LVL147:
 2244 0900 CC24      		clr r12
 2245 0902 E0E2      		ldi r30,32
 2246 0904 DE22      		and r13,r30
  90:../../../Resources_V12/Subroutines/Arithmetic.c **** case 2: if (RHSofBP_LB & (1 << (15-n)))RHSofDP += 1907; break;
 2247               		.loc 3 90 0 discriminator 4
 2248 0906 5901      		movw r10,r18
 2249 0908 AA24      		clr r10
 2250 090a F0E4      		ldi r31,64
 2251 090c BF22      		and r11,r31
  89:../../../Resources_V12/Subroutines/Arithmetic.c **** case 1: if (RHSofBP_LB & (1 << (15-n)))RHSofDP += 3815; break;
 2252               		.loc 3 89 0 discriminator 4
 2253 090e 2227      		clr r18
 2254 0910 3078      		andi r19,128
 2255               	.L154:
 2256               	.LVL148:
  88:../../../Resources_V12/Subroutines/Arithmetic.c **** case 0: if (RHSofBP_LB & (1 << (15-n)))RHSofDP += 7629; break;
 2257               		.loc 3 88 0 discriminator 4
 2258 0912 4E30      		cpi r20,14
 2259 0914 5105      		cpc r21,__zero_reg__
 2260 0916 00F0      		brlo .+2
 2261 0918 00C0      		rjmp .L138
 2262 091a FA01      		movw r30,r20
 2263 091c E050      		subi r30,lo8(-(gs(.L140)))
 2264 091e F040      		sbci r31,hi8(-(gs(.L140)))
 2265 0920 0C94 0000 		jmp __tablejump2__
 2266               		.section	.progmem.gcc_sw_table,"a",@progbits
 2267               		.p2align	1
 2268               	.L140:
 2269 001e 0000      		.word gs(.L139)
 2270 0020 0000      		.word gs(.L141)
 2271 0022 0000      		.word gs(.L142)
 2272 0024 0000      		.word gs(.L143)
 2273 0026 0000      		.word gs(.L144)
 2274 0028 0000      		.word gs(.L145)
 2275 002a 0000      		.word gs(.L146)
 2276 002c 0000      		.word gs(.L147)
 2277 002e 0000      		.word gs(.L148)
 2278 0030 0000      		.word gs(.L149)
 2279 0032 0000      		.word gs(.L150)
 2280 0034 0000      		.word gs(.L151)
 2281 0036 0000      		.word gs(.L152)
 2282 0038 0000      		.word gs(.L153)
 2283               		.text
 2284               	.L139:
 2285               	.LVL149:
  89:../../../Resources_V12/Subroutines/Arithmetic.c **** case 1: if (RHSofBP_LB & (1 << (15-n)))RHSofDP += 3815; break;
 2286               		.loc 3 89 0
 2287 0924 2115      		cp r18,__zero_reg__
 2288 0926 3105      		cpc r19,__zero_reg__
 2289 0928 01F4      		brne .+2
 2290 092a 00C0      		rjmp .L138
  89:../../../Resources_V12/Subroutines/Arithmetic.c **** case 1: if (RHSofBP_LB & (1 << (15-n)))RHSofDP += 3815; break;
 2291               		.loc 3 89 0 is_stmt 0 discriminator 1
 2292 092c 8353      		subi r24,51
 2293 092e 924E      		sbci r25,-30
 2294 0930 AF4F      		sbci r26,-1
 2295 0932 BF4F      		sbci r27,-1
 2296               	.LVL150:
 2297 0934 00C0      		rjmp .L138
 2298               	.LVL151:
 2299               	.L141:
  90:../../../Resources_V12/Subroutines/Arithmetic.c **** case 2: if (RHSofBP_LB & (1 << (15-n)))RHSofDP += 1907; break;
 2300               		.loc 3 90 0 is_stmt 1
 2301 0936 A114      		cp r10,__zero_reg__
 2302 0938 B104      		cpc r11,__zero_reg__
 2303 093a 01F4      		brne .+2
 2304 093c 00C0      		rjmp .L138
  90:../../../Resources_V12/Subroutines/Arithmetic.c **** case 2: if (RHSofBP_LB & (1 << (15-n)))RHSofDP += 1907; break;
 2305               		.loc 3 90 0 is_stmt 0 discriminator 1
 2306 093e 8951      		subi r24,25
 2307 0940 914F      		sbci r25,-15
 2308 0942 AF4F      		sbci r26,-1
 2309 0944 BF4F      		sbci r27,-1
 2310               	.LVL152:
 2311 0946 00C0      		rjmp .L138
 2312               	.L142:
  91:../../../Resources_V12/Subroutines/Arithmetic.c **** case 3: if (RHSofBP_LB & (1 << (15-n)))RHSofDP += 954; break;
 2313               		.loc 3 91 0 is_stmt 1
 2314 0948 C114      		cp r12,__zero_reg__
 2315 094a D104      		cpc r13,__zero_reg__
 2316 094c 01F4      		brne .+2
 2317 094e 00C0      		rjmp .L138
  91:../../../Resources_V12/Subroutines/Arithmetic.c **** case 3: if (RHSofBP_LB & (1 << (15-n)))RHSofDP += 954; break;
 2318               		.loc 3 91 0 is_stmt 0 discriminator 1
 2319 0950 8D58      		subi r24,-115
 2320 0952 984F      		sbci r25,-8
 2321 0954 AF4F      		sbci r26,-1
 2322 0956 BF4F      		sbci r27,-1
 2323               	.LVL153:
 2324 0958 00C0      		rjmp .L138
 2325               	.L143:
  92:../../../Resources_V12/Subroutines/Arithmetic.c **** case 4: if (RHSofBP_LB & (1 << (15-n)))RHSofDP += 477; break;
 2326               		.loc 3 92 0 is_stmt 1
 2327 095a E114      		cp r14,__zero_reg__
 2328 095c F104      		cpc r15,__zero_reg__
 2329 095e 01F4      		brne .+2
 2330 0960 00C0      		rjmp .L138
  92:../../../Resources_V12/Subroutines/Arithmetic.c **** case 4: if (RHSofBP_LB & (1 << (15-n)))RHSofDP += 477; break;
 2331               		.loc 3 92 0 is_stmt 0 discriminator 1
 2332 0962 8654      		subi r24,70
 2333 0964 9C4F      		sbci r25,-4
 2334 0966 AF4F      		sbci r26,-1
 2335 0968 BF4F      		sbci r27,-1
 2336               	.LVL154:
 2337 096a 00C0      		rjmp .L138
 2338               	.L144:
  93:../../../Resources_V12/Subroutines/Arithmetic.c **** case 5: if (RHSofBP_LB & (1 << (15-n)))RHSofDP += 238; break;
 2339               		.loc 3 93 0 is_stmt 1
 2340 096c ED85      		ldd r30,Y+13
 2341 096e FE85      		ldd r31,Y+14
 2342 0970 EF2B      		or r30,r31
 2343 0972 01F4      		brne .+2
 2344 0974 00C0      		rjmp .L138
  93:../../../Resources_V12/Subroutines/Arithmetic.c **** case 5: if (RHSofBP_LB & (1 << (15-n)))RHSofDP += 238; break;
 2345               		.loc 3 93 0 is_stmt 0 discriminator 1
 2346 0976 8352      		subi r24,35
 2347 0978 9E4F      		sbci r25,-2
 2348 097a AF4F      		sbci r26,-1
 2349 097c BF4F      		sbci r27,-1
 2350               	.LVL155:
 2351 097e 00C0      		rjmp .L138
 2352               	.L145:
  94:../../../Resources_V12/Subroutines/Arithmetic.c **** case 6: if (RHSofBP_LB & (1 << (15-n)))RHSofDP += 119; break;
 2353               		.loc 3 94 0 is_stmt 1
 2354 0980 6115      		cp r22,__zero_reg__
 2355 0982 7105      		cpc r23,__zero_reg__
 2356 0984 01F4      		brne .+2
 2357 0986 00C0      		rjmp .L138
  94:../../../Resources_V12/Subroutines/Arithmetic.c **** case 6: if (RHSofBP_LB & (1 << (15-n)))RHSofDP += 119; break;
 2358               		.loc 3 94 0 is_stmt 0 discriminator 1
 2359 0988 8251      		subi r24,18
 2360 098a 9F4F      		sbci r25,-1
 2361 098c AF4F      		sbci r26,-1
 2362 098e BF4F      		sbci r27,-1
 2363               	.LVL156:
 2364 0990 00C0      		rjmp .L138
 2365               	.L146:
  95:../../../Resources_V12/Subroutines/Arithmetic.c **** case 7: if (RHSofBP_LB & (1 << (15-n)))RHSofDP += 60; break;
 2366               		.loc 3 95 0 is_stmt 1
 2367 0992 8114      		cp r8,__zero_reg__
 2368 0994 9104      		cpc r9,__zero_reg__
 2369 0996 01F0      		breq .L138
  95:../../../Resources_V12/Subroutines/Arithmetic.c **** case 7: if (RHSofBP_LB & (1 << (15-n)))RHSofDP += 60; break;
 2370               		.loc 3 95 0 is_stmt 0 discriminator 1
 2371 0998 8958      		subi r24,-119
 2372 099a 9F4F      		sbci r25,-1
 2373 099c AF4F      		sbci r26,-1
 2374 099e BF4F      		sbci r27,-1
 2375               	.LVL157:
 2376 09a0 00C0      		rjmp .L138
 2377               	.L147:
  96:../../../Resources_V12/Subroutines/Arithmetic.c **** case 8: if (RHSofBP_LB & (1 << (15-n)))RHSofDP += 30; break;
 2378               		.loc 3 96 0 is_stmt 1
 2379 09a2 6114      		cp r6,__zero_reg__
 2380 09a4 7104      		cpc r7,__zero_reg__
 2381 09a6 01F0      		breq .L138
  96:../../../Resources_V12/Subroutines/Arithmetic.c **** case 8: if (RHSofBP_LB & (1 << (15-n)))RHSofDP += 30; break;
 2382               		.loc 3 96 0 is_stmt 0 discriminator 1
 2383 09a8 CC96      		adiw r24,60
 2384 09aa A11D      		adc r26,__zero_reg__
 2385 09ac B11D      		adc r27,__zero_reg__
 2386               	.LVL158:
 2387 09ae 00C0      		rjmp .L138
 2388               	.L148:
  97:../../../Resources_V12/Subroutines/Arithmetic.c **** case 9: if (RHSofBP_LB & (1 << (15-n)))RHSofDP += 15; break;
 2389               		.loc 3 97 0 is_stmt 1
 2390 09b0 4114      		cp r4,__zero_reg__
 2391 09b2 5104      		cpc r5,__zero_reg__
 2392 09b4 01F0      		breq .L138
  97:../../../Resources_V12/Subroutines/Arithmetic.c **** case 9: if (RHSofBP_LB & (1 << (15-n)))RHSofDP += 15; break;
 2393               		.loc 3 97 0 is_stmt 0 discriminator 1
 2394 09b6 4E96      		adiw r24,30
 2395 09b8 A11D      		adc r26,__zero_reg__
 2396 09ba B11D      		adc r27,__zero_reg__
 2397               	.LVL159:
 2398 09bc 00C0      		rjmp .L138
 2399               	.L149:
  98:../../../Resources_V12/Subroutines/Arithmetic.c **** case 10: if (RHSofBP_LB & (1 << (15-n)))RHSofDP += 7; break;
 2400               		.loc 3 98 0 is_stmt 1
 2401 09be 0115      		cp r16,__zero_reg__
 2402 09c0 1105      		cpc r17,__zero_reg__
 2403 09c2 01F0      		breq .L138
  98:../../../Resources_V12/Subroutines/Arithmetic.c **** case 10: if (RHSofBP_LB & (1 << (15-n)))RHSofDP += 7; break;
 2404               		.loc 3 98 0 is_stmt 0 discriminator 1
 2405 09c4 0F96      		adiw r24,15
 2406 09c6 A11D      		adc r26,__zero_reg__
 2407 09c8 B11D      		adc r27,__zero_reg__
 2408               	.LVL160:
 2409 09ca 00C0      		rjmp .L138
 2410               	.L150:
  99:../../../Resources_V12/Subroutines/Arithmetic.c **** case 11: if (RHSofBP_LB & (1 << (15-n)))RHSofDP += 4; break;
 2411               		.loc 3 99 0 is_stmt 1
 2412 09cc 2114      		cp r2,__zero_reg__
 2413 09ce 3104      		cpc r3,__zero_reg__
 2414 09d0 01F0      		breq .L138
  99:../../../Resources_V12/Subroutines/Arithmetic.c **** case 11: if (RHSofBP_LB & (1 << (15-n)))RHSofDP += 4; break;
 2415               		.loc 3 99 0 is_stmt 0 discriminator 1
 2416 09d2 0796      		adiw r24,7
 2417 09d4 A11D      		adc r26,__zero_reg__
 2418 09d6 B11D      		adc r27,__zero_reg__
 2419               	.LVL161:
 2420 09d8 00C0      		rjmp .L138
 2421               	.L151:
 100:../../../Resources_V12/Subroutines/Arithmetic.c **** case 12: if (RHSofBP_LB & (1 << (15-n)))RHSofDP += 2; break;
 2422               		.loc 3 100 0 is_stmt 1
 2423 09da E985      		ldd r30,Y+9
 2424 09dc FA85      		ldd r31,Y+10
 2425 09de EF2B      		or r30,r31
 2426 09e0 01F0      		breq .L138
 100:../../../Resources_V12/Subroutines/Arithmetic.c **** case 12: if (RHSofBP_LB & (1 << (15-n)))RHSofDP += 2; break;
 2427               		.loc 3 100 0 is_stmt 0 discriminator 1
 2428 09e2 0496      		adiw r24,4
 2429 09e4 A11D      		adc r26,__zero_reg__
 2430 09e6 B11D      		adc r27,__zero_reg__
 2431               	.LVL162:
 2432 09e8 00C0      		rjmp .L138
 2433               	.L152:
 101:../../../Resources_V12/Subroutines/Arithmetic.c **** case 13: if (RHSofBP_LB & (1 << (15-n)))RHSofDP += 1; break;
 2434               		.loc 3 101 0 is_stmt 1
 2435 09ea ED81      		ldd r30,Y+5
 2436 09ec FE81      		ldd r31,Y+6
 2437 09ee EF2B      		or r30,r31
 2438 09f0 01F0      		breq .L138
 101:../../../Resources_V12/Subroutines/Arithmetic.c **** case 13: if (RHSofBP_LB & (1 << (15-n)))RHSofDP += 1; break;
 2439               		.loc 3 101 0 is_stmt 0 discriminator 1
 2440 09f2 0296      		adiw r24,2
 2441 09f4 A11D      		adc r26,__zero_reg__
 2442 09f6 B11D      		adc r27,__zero_reg__
 2443               	.LVL163:
 2444 09f8 00C0      		rjmp .L138
 2445               	.L153:
 2446               		.loc 3 102 0 is_stmt 1
 2447 09fa E981      		ldd r30,Y+1
 2448 09fc FA81      		ldd r31,Y+2
 2449 09fe EF2B      		or r30,r31
 2450 0a00 01F0      		breq .L138
 2451               		.loc 3 102 0 is_stmt 0 discriminator 1
 2452 0a02 0196      		adiw r24,1
 2453 0a04 A11D      		adc r26,__zero_reg__
 2454 0a06 B11D      		adc r27,__zero_reg__
 2455               	.LVL164:
 2456               	.L138:
  88:../../../Resources_V12/Subroutines/Arithmetic.c **** case 0: if (RHSofBP_LB & (1 << (15-n)))RHSofDP += 7629; break;
 2457               		.loc 3 88 0 is_stmt 1 discriminator 2
 2458 0a08 4F5F      		subi r20,-1
 2459 0a0a 5F4F      		sbci r21,-1
 2460               	.LVL165:
 2461 0a0c 4031      		cpi r20,16
 2462 0a0e 5105      		cpc r21,__zero_reg__
 2463 0a10 01F0      		breq .+2
 2464 0a12 00C0      		rjmp .L154
 2465               	.LBE65:
 103:../../../Resources_V12/Subroutines/Arithmetic.c **** case 14: if (RHSofBP_LB & (1 << (15-n)))RHSofDP += 0; break;
 104:../../../Resources_V12/Subroutines/Arithmetic.c **** case 15: if (RHSofBP_LB & (1 << (15-n)))RHSofDP += 0; break;}}
 105:../../../Resources_V12/Subroutines/Arithmetic.c **** return RHSofDP;}
 2466               		.loc 3 105 0
 2467 0a14 BC01      		movw r22,r24
 2468 0a16 CD01      		movw r24,r26
 2469               	/* epilogue start */
 2470 0a18 E696      		adiw r28,54
 2471 0a1a 0FB6      		in __tmp_reg__,__SREG__
 2472 0a1c F894      		cli
 2473 0a1e DEBF      		out __SP_H__,r29
 2474 0a20 0FBE      		out __SREG__,__tmp_reg__
 2475 0a22 CDBF      		out __SP_L__,r28
 2476 0a24 DF91      		pop r29
 2477 0a26 CF91      		pop r28
 2478 0a28 1F91      		pop r17
 2479 0a2a 0F91      		pop r16
 2480 0a2c FF90      		pop r15
 2481 0a2e EF90      		pop r14
 2482 0a30 DF90      		pop r13
 2483 0a32 CF90      		pop r12
 2484 0a34 BF90      		pop r11
 2485 0a36 AF90      		pop r10
 2486 0a38 9F90      		pop r9
 2487 0a3a 8F90      		pop r8
 2488 0a3c 7F90      		pop r7
 2489 0a3e 6F90      		pop r6
 2490 0a40 5F90      		pop r5
 2491 0a42 4F90      		pop r4
 2492 0a44 3F90      		pop r3
 2493 0a46 2F90      		pop r2
 2494 0a48 0895      		ret
 2495               		.cfi_endproc
 2496               	.LFE55:
 2498               	.global	Fraction_to_Binary_Signed
 2500               	Fraction_to_Binary_Signed:
 2501               	.LFB56:
 106:../../../Resources_V12/Subroutines/Arithmetic.c **** 
 107:../../../Resources_V12/Subroutines/Arithmetic.c **** 
 108:../../../Resources_V12/Subroutines/Arithmetic.c **** /******************************************************************************/
 109:../../../Resources_V12/Subroutines/Arithmetic.c **** long Fraction_to_Binary_Signed(long rem, long Den){
 2502               		.loc 3 109 0
 2503               		.cfi_startproc
 2504               	.LVL166:
 2505 0a4a 2F92      		push r2
 2506               	.LCFI87:
 2507               		.cfi_def_cfa_offset 3
 2508               		.cfi_offset 2, -2
 2509 0a4c 3F92      		push r3
 2510               	.LCFI88:
 2511               		.cfi_def_cfa_offset 4
 2512               		.cfi_offset 3, -3
 2513 0a4e 4F92      		push r4
 2514               	.LCFI89:
 2515               		.cfi_def_cfa_offset 5
 2516               		.cfi_offset 4, -4
 2517 0a50 5F92      		push r5
 2518               	.LCFI90:
 2519               		.cfi_def_cfa_offset 6
 2520               		.cfi_offset 5, -5
 2521 0a52 6F92      		push r6
 2522               	.LCFI91:
 2523               		.cfi_def_cfa_offset 7
 2524               		.cfi_offset 6, -6
 2525 0a54 7F92      		push r7
 2526               	.LCFI92:
 2527               		.cfi_def_cfa_offset 8
 2528               		.cfi_offset 7, -7
 2529 0a56 8F92      		push r8
 2530               	.LCFI93:
 2531               		.cfi_def_cfa_offset 9
 2532               		.cfi_offset 8, -8
 2533 0a58 9F92      		push r9
 2534               	.LCFI94:
 2535               		.cfi_def_cfa_offset 10
 2536               		.cfi_offset 9, -9
 2537 0a5a AF92      		push r10
 2538               	.LCFI95:
 2539               		.cfi_def_cfa_offset 11
 2540               		.cfi_offset 10, -10
 2541 0a5c BF92      		push r11
 2542               	.LCFI96:
 2543               		.cfi_def_cfa_offset 12
 2544               		.cfi_offset 11, -11
 2545 0a5e CF92      		push r12
 2546               	.LCFI97:
 2547               		.cfi_def_cfa_offset 13
 2548               		.cfi_offset 12, -12
 2549 0a60 DF92      		push r13
 2550               	.LCFI98:
 2551               		.cfi_def_cfa_offset 14
 2552               		.cfi_offset 13, -13
 2553 0a62 EF92      		push r14
 2554               	.LCFI99:
 2555               		.cfi_def_cfa_offset 15
 2556               		.cfi_offset 14, -14
 2557 0a64 FF92      		push r15
 2558               	.LCFI100:
 2559               		.cfi_def_cfa_offset 16
 2560               		.cfi_offset 15, -15
 2561 0a66 0F93      		push r16
 2562               	.LCFI101:
 2563               		.cfi_def_cfa_offset 17
 2564               		.cfi_offset 16, -16
 2565 0a68 1F93      		push r17
 2566               	.LCFI102:
 2567               		.cfi_def_cfa_offset 18
 2568               		.cfi_offset 17, -17
 2569 0a6a CF93      		push r28
 2570               	.LCFI103:
 2571               		.cfi_def_cfa_offset 19
 2572               		.cfi_offset 28, -18
 2573 0a6c DF93      		push r29
 2574               	.LCFI104:
 2575               		.cfi_def_cfa_offset 20
 2576               		.cfi_offset 29, -19
 2577 0a6e 00D0      		rcall .
 2578 0a70 1F92      		push __zero_reg__
 2579               	.LCFI105:
 2580               		.cfi_def_cfa_offset 23
 2581 0a72 CDB7      		in r28,__SP_L__
 2582 0a74 DEB7      		in r29,__SP_H__
 2583               	.LCFI106:
 2584               		.cfi_def_cfa_register 28
 2585               	/* prologue: function */
 2586               	/* frame size = 3 */
 2587               	/* stack size = 21 */
 2588               	.L__stack_usage = 21
 2589 0a76 6B01      		movw r12,r22
 2590 0a78 7C01      		movw r14,r24
 2591 0a7a 4901      		movw r8,r18
 2592 0a7c 5A01      		movw r10,r20
 2593               	.LVL167:
 110:../../../Resources_V12/Subroutines/Arithmetic.c **** long Result = 0; 						
 111:../../../Resources_V12/Subroutines/Arithmetic.c **** unsigned int res_LB=0; 
 112:../../../Resources_V12/Subroutines/Arithmetic.c **** char sign = '+';
 113:../../../Resources_V12/Subroutines/Arithmetic.c **** 
 114:../../../Resources_V12/Subroutines/Arithmetic.c **** if((rem >= -0x40000000) && (rem < 0x40000000) &&
 2594               		.loc 3 114 0
 2595 0a7e DC01      		movw r26,r24
 2596 0a80 CB01      		movw r24,r22
 2597 0a82 B05C      		subi r27,-64
 2598 0a84 B7FD      		sbrc r27,7
 2599 0a86 00C0      		rjmp .L248
 115:../../../Resources_V12/Subroutines/Arithmetic.c **** (Den >= -0x40000000) && (Den < 0x40000000));
 2600               		.loc 3 115 0
 2601 0a88 DA01      		movw r26,r20
 2602 0a8a C901      		movw r24,r18
 2603 0a8c B05C      		subi r27,-64
 2604 0a8e B7FF      		sbrs r27,7
 2605 0a90 00C0      		rjmp .L249
 2606               	.L248:
 116:../../../Resources_V12/Subroutines/Arithmetic.c **** else{rem /= 2; Den /= 2;}
 2607               		.loc 3 116 0
 2608 0a92 42E0      		ldi r20,lo8(2)
 2609 0a94 442E      		mov r4,r20
 2610 0a96 512C      		mov r5,__zero_reg__
 2611 0a98 612C      		mov r6,__zero_reg__
 2612 0a9a 712C      		mov r7,__zero_reg__
 2613 0a9c C701      		movw r24,r14
 2614 0a9e B601      		movw r22,r12
 2615               	.LVL168:
 2616 0aa0 A301      		movw r20,r6
 2617 0aa2 9201      		movw r18,r4
 2618               	.LVL169:
 2619 0aa4 0E94 0000 		call __divmodsi4
 2620 0aa8 6901      		movw r12,r18
 2621 0aaa 7A01      		movw r14,r20
 2622               	.LVL170:
 2623 0aac C501      		movw r24,r10
 2624 0aae B401      		movw r22,r8
 2625 0ab0 A301      		movw r20,r6
 2626 0ab2 9201      		movw r18,r4
 2627 0ab4 0E94 0000 		call __divmodsi4
 2628 0ab8 4901      		movw r8,r18
 2629 0aba 5A01      		movw r10,r20
 2630               	.LVL171:
 2631               	.L249:
 117:../../../Resources_V12/Subroutines/Arithmetic.c **** 
 118:../../../Resources_V12/Subroutines/Arithmetic.c **** if ((rem < 0) || (Den < 0)) sign = '-';
 2632               		.loc 3 118 0
 2633 0abc F7FC      		sbrc r15,7
 2634 0abe 00C0      		rjmp .L250
 2635               		.loc 3 118 0 is_stmt 0 discriminator 2
 2636 0ac0 B7FE      		sbrs r11,7
 2637 0ac2 00C0      		rjmp .L258
 2638 0ac4 9DE2      		ldi r25,lo8(45)
 2639 0ac6 9983      		std Y+1,r25
 2640 0ac8 00C0      		rjmp .L251
 2641               	.L250:
 2642               	.LVL172:
 119:../../../Resources_V12/Subroutines/Arithmetic.c **** if ((rem < 0) && (Den < 0)) sign = '+';
 2643               		.loc 3 119 0 is_stmt 1 discriminator 1
 2644 0aca B7FC      		sbrc r11,7
 2645 0acc 00C0      		rjmp .L258
 2646               		.loc 3 119 0 is_stmt 0
 2647 0ace 8DE2      		ldi r24,lo8(45)
 2648 0ad0 8983      		std Y+1,r24
 2649 0ad2 00C0      		rjmp .L251
 2650               	.LVL173:
 2651               	.L258:
 112:../../../Resources_V12/Subroutines/Arithmetic.c **** 
 2652               		.loc 3 112 0 is_stmt 1
 2653 0ad4 2BE2      		ldi r18,lo8(43)
 2654 0ad6 2983      		std Y+1,r18
 2655               	.L251:
 2656               	.LVL174:
 2657 0ad8 8EE0      		ldi r24,lo8(14)
 2658 0ada 90E0      		ldi r25,0
 2659 0adc 9B83      		std Y+3,r25
 2660 0ade 8A83      		std Y+2,r24
 110:../../../Resources_V12/Subroutines/Arithmetic.c **** unsigned int res_LB=0; 
 2661               		.loc 3 110 0
 2662 0ae0 412C      		mov r4,__zero_reg__
 2663 0ae2 512C      		mov r5,__zero_reg__
 2664 0ae4 3201      		movw r6,r4
 2665               	.LBB66:
 120:../../../Resources_V12/Subroutines/Arithmetic.c **** 
 121:../../../Resources_V12/Subroutines/Arithmetic.c **** for(int n = 1; n <= 15; n++){					//bit 0 is reserved for sign bit
 122:../../../Resources_V12/Subroutines/Arithmetic.c **** if ((2*(rem))/Den)(Result) |= (1 << (15-n));
 2666               		.loc 3 122 0
 2667 0ae6 01E0      		ldi r16,lo8(1)
 2668 0ae8 10E0      		ldi r17,0
 2669               	.LVL175:
 2670               	.L253:
 2671 0aea CC0C      		lsl r12
 2672 0aec DD1C      		rol r13
 2673 0aee EE1C      		rol r14
 2674 0af0 FF1C      		rol r15
 2675               	.LVL176:
 2676 0af2 C701      		movw r24,r14
 2677 0af4 B601      		movw r22,r12
 2678 0af6 A501      		movw r20,r10
 2679 0af8 9401      		movw r18,r8
 2680 0afa 0E94 0000 		call __divmodsi4
 2681 0afe 232B      		or r18,r19
 2682 0b00 242B      		or r18,r20
 2683 0b02 252B      		or r18,r21
 2684 0b04 01F0      		breq .L252
 2685               		.loc 3 122 0 is_stmt 0 discriminator 1
 2686 0b06 C801      		movw r24,r16
 2687 0b08 0A80      		ldd r0,Y+2
 2688 0b0a 00C0      		rjmp 2f
 2689               		1:
 2690 0b0c 880F      		lsl r24
 2691 0b0e 991F      		rol r25
 2692               		2:
 2693 0b10 0A94      		dec r0
 2694 0b12 02F4      		brpl 1b
 2695 0b14 092E      		mov __tmp_reg__,r25
 2696 0b16 000C      		lsl r0
 2697 0b18 AA0B      		sbc r26,r26
 2698 0b1a BB0B      		sbc r27,r27
 2699 0b1c 482A      		or r4,r24
 2700 0b1e 592A      		or r5,r25
 2701 0b20 6A2A      		or r6,r26
 2702 0b22 7B2A      		or r7,r27
 2703               	.LVL177:
 2704               	.L252:
 123:../../../Resources_V12/Subroutines/Arithmetic.c **** rem = (2*(rem))%Den; }
 2705               		.loc 3 123 0 is_stmt 1 discriminator 2
 2706 0b24 C701      		movw r24,r14
 2707 0b26 B601      		movw r22,r12
 2708 0b28 A501      		movw r20,r10
 2709 0b2a 9401      		movw r18,r8
 2710 0b2c 0E94 0000 		call __divmodsi4
 2711 0b30 6B01      		movw r12,r22
 2712 0b32 7C01      		movw r14,r24
 2713               	.LVL178:
 2714 0b34 8A81      		ldd r24,Y+2
 2715 0b36 9B81      		ldd r25,Y+3
 2716 0b38 0197      		sbiw r24,1
 2717 0b3a 9B83      		std Y+3,r25
 2718 0b3c 8A83      		std Y+2,r24
 2719               	.LVL179:
 121:../../../Resources_V12/Subroutines/Arithmetic.c **** if ((2*(rem))/Den)(Result) |= (1 << (15-n));
 2720               		.loc 3 121 0 discriminator 2
 2721 0b3e 0196      		adiw r24,1
 2722 0b40 01F4      		brne .L253
 2723               	.LBE66:
 124:../../../Resources_V12/Subroutines/Arithmetic.c **** Result = Result << 16;
 2724               		.loc 3 124 0
 2725 0b42 3201      		movw r6,r4
 2726 0b44 5524      		clr r5
 2727 0b46 4424      		clr r4
 2728               	.LVL180:
 2729 0b48 8FE0      		ldi r24,lo8(15)
 2730 0b4a 90E0      		ldi r25,0
 2731               	.LVL181:
 2732 0b4c 9B83      		std Y+3,r25
 2733 0b4e 8A83      		std Y+2,r24
 2734               	.LVL182:
 111:../../../Resources_V12/Subroutines/Arithmetic.c **** char sign = '+';
 2735               		.loc 3 111 0
 2736 0b50 00E0      		ldi r16,0
 2737 0b52 10E0      		ldi r17,0
 2738               	.LBB67:
 125:../../../Resources_V12/Subroutines/Arithmetic.c **** for(int n = 0; n <= 15; n++){
 126:../../../Resources_V12/Subroutines/Arithmetic.c **** if ((2*(rem))/Den)(res_LB) |= (1 << (15-n));
 2739               		.loc 3 126 0
 2740 0b54 2224      		clr r2
 2741 0b56 2394      		inc r2
 2742 0b58 312C      		mov r3,__zero_reg__
 2743               	.LVL183:
 2744               	.L255:
 2745 0b5a CC0C      		lsl r12
 2746 0b5c DD1C      		rol r13
 2747 0b5e EE1C      		rol r14
 2748 0b60 FF1C      		rol r15
 2749               	.LVL184:
 2750 0b62 C701      		movw r24,r14
 2751 0b64 B601      		movw r22,r12
 2752 0b66 A501      		movw r20,r10
 2753 0b68 9401      		movw r18,r8
 2754 0b6a 0E94 0000 		call __divmodsi4
 2755 0b6e 232B      		or r18,r19
 2756 0b70 242B      		or r18,r20
 2757 0b72 252B      		or r18,r21
 2758 0b74 01F0      		breq .L254
 2759               		.loc 3 126 0 is_stmt 0 discriminator 1
 2760 0b76 C101      		movw r24,r2
 2761 0b78 0A80      		ldd r0,Y+2
 2762 0b7a 00C0      		rjmp 2f
 2763               		1:
 2764 0b7c 880F      		lsl r24
 2765 0b7e 991F      		rol r25
 2766               		2:
 2767 0b80 0A94      		dec r0
 2768 0b82 02F4      		brpl 1b
 2769 0b84 082B      		or r16,r24
 2770 0b86 192B      		or r17,r25
 2771               	.LVL185:
 2772               	.L254:
 127:../../../Resources_V12/Subroutines/Arithmetic.c **** rem = (2*(rem))%Den;}
 2773               		.loc 3 127 0 is_stmt 1 discriminator 2
 2774 0b88 C701      		movw r24,r14
 2775 0b8a B601      		movw r22,r12
 2776 0b8c A501      		movw r20,r10
 2777 0b8e 9401      		movw r18,r8
 2778 0b90 0E94 0000 		call __divmodsi4
 2779 0b94 6B01      		movw r12,r22
 2780 0b96 7C01      		movw r14,r24
 2781               	.LVL186:
 2782 0b98 8A81      		ldd r24,Y+2
 2783 0b9a 9B81      		ldd r25,Y+3
 2784 0b9c 0197      		sbiw r24,1
 2785 0b9e 9B83      		std Y+3,r25
 2786 0ba0 8A83      		std Y+2,r24
 2787               	.LVL187:
 125:../../../Resources_V12/Subroutines/Arithmetic.c **** for(int n = 0; n <= 15; n++){
 2788               		.loc 3 125 0 discriminator 2
 2789 0ba2 0196      		adiw r24,1
 2790 0ba4 01F4      		brne .L255
 2791               	.LBE67:
 128:../../../Resources_V12/Subroutines/Arithmetic.c **** Result += res_LB;								//Result is not affected by the signs of rem and Den
 2792               		.loc 3 128 0
 2793 0ba6 C301      		movw r24,r6
 2794 0ba8 B201      		movw r22,r4
 2795 0baa 600F      		add r22,r16
 2796 0bac 711F      		adc r23,r17
 2797 0bae 811D      		adc r24,__zero_reg__
 2798 0bb0 911D      		adc r25,__zero_reg__
 2799               	.LVL188:
 129:../../../Resources_V12/Subroutines/Arithmetic.c **** if(sign == '-')Result = ~Result;				//Inverting the sign bit is equivalent to adding -1
 2800               		.loc 3 129 0
 2801 0bb2 2981      		ldd r18,Y+1
 2802 0bb4 2D32      		cpi r18,lo8(45)
 2803 0bb6 01F4      		brne .L256
 2804               		.loc 3 129 0 is_stmt 0 discriminator 1
 2805 0bb8 6095      		com r22
 2806 0bba 7095      		com r23
 2807 0bbc 8095      		com r24
 2808 0bbe 9095      		com r25
 2809               	.LVL189:
 2810               	.L256:
 2811               	/* epilogue start */
 130:../../../Resources_V12/Subroutines/Arithmetic.c **** return Result;}
 2812               		.loc 3 130 0 is_stmt 1
 2813 0bc0 0F90      		pop __tmp_reg__
 2814 0bc2 0F90      		pop __tmp_reg__
 2815 0bc4 0F90      		pop __tmp_reg__
 2816 0bc6 DF91      		pop r29
 2817 0bc8 CF91      		pop r28
 2818               	.LVL190:
 2819 0bca 1F91      		pop r17
 2820               	.LVL191:
 2821 0bcc 0F91      		pop r16
 2822               	.LVL192:
 2823 0bce FF90      		pop r15
 2824               	.LVL193:
 2825 0bd0 EF90      		pop r14
 2826               	.LVL194:
 2827 0bd2 DF90      		pop r13
 2828               	.LVL195:
 2829 0bd4 CF90      		pop r12
 2830               	.LVL196:
 2831 0bd6 BF90      		pop r11
 2832               	.LVL197:
 2833 0bd8 AF90      		pop r10
 2834               	.LVL198:
 2835 0bda 9F90      		pop r9
 2836               	.LVL199:
 2837 0bdc 8F90      		pop r8
 2838               	.LVL200:
 2839 0bde 7F90      		pop r7
 2840               	.LVL201:
 2841 0be0 6F90      		pop r6
 2842               	.LVL202:
 2843 0be2 5F90      		pop r5
 2844               	.LVL203:
 2845 0be4 4F90      		pop r4
 2846               	.LVL204:
 2847 0be6 3F90      		pop r3
 2848               	.LVL205:
 2849 0be8 2F90      		pop r2
 2850               	.LVL206:
 2851 0bea 0895      		ret
 2852               		.cfi_endproc
 2853               	.LFE56:
 2855               	.global	Binary_points_to_Decimal_Signed
 2857               	Binary_points_to_Decimal_Signed:
 2858               	.LFB57:
 131:../../../Resources_V12/Subroutines/Arithmetic.c **** 
 132:../../../Resources_V12/Subroutines/Arithmetic.c **** 
 133:../../../Resources_V12/Subroutines/Arithmetic.c **** /******************************************************************************/
 134:../../../Resources_V12/Subroutines/Arithmetic.c **** long Binary_points_to_Decimal_Signed (long RHSofBP)
 135:../../../Resources_V12/Subroutines/Arithmetic.c **** {long  RHSofDP=0;
 2859               		.loc 3 135 0
 2860               		.cfi_startproc
 2861               	.LVL207:
 2862 0bec 2F92      		push r2
 2863               	.LCFI107:
 2864               		.cfi_def_cfa_offset 3
 2865               		.cfi_offset 2, -2
 2866 0bee 3F92      		push r3
 2867               	.LCFI108:
 2868               		.cfi_def_cfa_offset 4
 2869               		.cfi_offset 3, -3
 2870 0bf0 4F92      		push r4
 2871               	.LCFI109:
 2872               		.cfi_def_cfa_offset 5
 2873               		.cfi_offset 4, -4
 2874 0bf2 5F92      		push r5
 2875               	.LCFI110:
 2876               		.cfi_def_cfa_offset 6
 2877               		.cfi_offset 5, -5
 2878 0bf4 6F92      		push r6
 2879               	.LCFI111:
 2880               		.cfi_def_cfa_offset 7
 2881               		.cfi_offset 6, -6
 2882 0bf6 7F92      		push r7
 2883               	.LCFI112:
 2884               		.cfi_def_cfa_offset 8
 2885               		.cfi_offset 7, -7
 2886 0bf8 8F92      		push r8
 2887               	.LCFI113:
 2888               		.cfi_def_cfa_offset 9
 2889               		.cfi_offset 8, -8
 2890 0bfa 9F92      		push r9
 2891               	.LCFI114:
 2892               		.cfi_def_cfa_offset 10
 2893               		.cfi_offset 9, -9
 2894 0bfc AF92      		push r10
 2895               	.LCFI115:
 2896               		.cfi_def_cfa_offset 11
 2897               		.cfi_offset 10, -10
 2898 0bfe BF92      		push r11
 2899               	.LCFI116:
 2900               		.cfi_def_cfa_offset 12
 2901               		.cfi_offset 11, -11
 2902 0c00 CF92      		push r12
 2903               	.LCFI117:
 2904               		.cfi_def_cfa_offset 13
 2905               		.cfi_offset 12, -12
 2906 0c02 DF92      		push r13
 2907               	.LCFI118:
 2908               		.cfi_def_cfa_offset 14
 2909               		.cfi_offset 13, -13
 2910 0c04 EF92      		push r14
 2911               	.LCFI119:
 2912               		.cfi_def_cfa_offset 15
 2913               		.cfi_offset 14, -14
 2914 0c06 FF92      		push r15
 2915               	.LCFI120:
 2916               		.cfi_def_cfa_offset 16
 2917               		.cfi_offset 15, -15
 2918 0c08 0F93      		push r16
 2919               	.LCFI121:
 2920               		.cfi_def_cfa_offset 17
 2921               		.cfi_offset 16, -16
 2922 0c0a 1F93      		push r17
 2923               	.LCFI122:
 2924               		.cfi_def_cfa_offset 18
 2925               		.cfi_offset 17, -17
 2926 0c0c CF93      		push r28
 2927               	.LCFI123:
 2928               		.cfi_def_cfa_offset 19
 2929               		.cfi_offset 28, -18
 2930 0c0e DF93      		push r29
 2931               	.LCFI124:
 2932               		.cfi_def_cfa_offset 20
 2933               		.cfi_offset 29, -19
 2934 0c10 CDB7      		in r28,__SP_L__
 2935 0c12 DEB7      		in r29,__SP_H__
 2936               	.LCFI125:
 2937               		.cfi_def_cfa_register 28
 2938 0c14 E697      		sbiw r28,54
 2939               	.LCFI126:
 2940               		.cfi_def_cfa_offset 74
 2941 0c16 0FB6      		in __tmp_reg__,__SREG__
 2942 0c18 F894      		cli
 2943 0c1a DEBF      		out __SP_H__,r29
 2944 0c1c 0FBE      		out __SREG__,__tmp_reg__
 2945 0c1e CDBF      		out __SP_L__,r28
 2946               	/* prologue: function */
 2947               	/* frame size = 54 */
 2948               	/* stack size = 72 */
 2949               	.L__stack_usage = 72
 2950               	.LVL208:
 136:../../../Resources_V12/Subroutines/Arithmetic.c **** unsigned int RHSofBP_LB;
 137:../../../Resources_V12/Subroutines/Arithmetic.c **** RHSofBP_LB = RHSofBP;
 2951               		.loc 3 137 0
 2952 0c20 9B01      		movw r18,r22
 2953               	.LVL209:
 2954               	.LBB68:
 138:../../../Resources_V12/Subroutines/Arithmetic.c **** 
 139:../../../Resources_V12/Subroutines/Arithmetic.c **** for(int n = 0; n <= 15; n++){switch(n){						//bit zero is sign bit
 140:../../../Resources_V12/Subroutines/Arithmetic.c **** case 0: if (RHSofBP>>16 & (1 << (15-n)))RHSofDP -= 1000000000; break;
 141:../../../Resources_V12/Subroutines/Arithmetic.c **** case 1: if (RHSofBP>>16 & (1 << (15-n)))RHSofDP += 500000000; break;
 142:../../../Resources_V12/Subroutines/Arithmetic.c **** case 2: if (RHSofBP>>16 & (1 << (15-n)))RHSofDP += 250000000; break;
 143:../../../Resources_V12/Subroutines/Arithmetic.c **** case 3: if (RHSofBP>>16 & (1 << (15-n)))RHSofDP += 125000000; break;
 144:../../../Resources_V12/Subroutines/Arithmetic.c **** case 4: if (RHSofBP>>16 & (1 << (15-n)))RHSofDP += 62500000; break;
 145:../../../Resources_V12/Subroutines/Arithmetic.c **** case 5: if (RHSofBP>>16 & (1 << (15-n)))RHSofDP += 31250000; break;
 146:../../../Resources_V12/Subroutines/Arithmetic.c **** case 6: if (RHSofBP>>16 & (1 << (15-n)))RHSofDP += 15625000; break;
 147:../../../Resources_V12/Subroutines/Arithmetic.c **** case 7: if (RHSofBP>>16 & (1 << (15-n)))RHSofDP += 7812500; break;
 148:../../../Resources_V12/Subroutines/Arithmetic.c **** case 8: if (RHSofBP>>16 & (1 << (15-n)))RHSofDP += 3906250; break;
 149:../../../Resources_V12/Subroutines/Arithmetic.c **** case 9: if (RHSofBP>>16 & (1 << (15-n)))RHSofDP += 1953125; break;
 150:../../../Resources_V12/Subroutines/Arithmetic.c **** case 10: if (RHSofBP>>16 & (1 << (15-n)))RHSofDP += 976563; break;
 151:../../../Resources_V12/Subroutines/Arithmetic.c **** case 11: if (RHSofBP>>16 & (1 << (15-n)))RHSofDP += 488281; break;
 152:../../../Resources_V12/Subroutines/Arithmetic.c **** case 12: if (RHSofBP>>16 & (1 << (15-n)))RHSofDP += 244141; break;
 153:../../../Resources_V12/Subroutines/Arithmetic.c **** case 13: if (RHSofBP>>16 & (1 << (15-n)))RHSofDP += 122070; break;
 154:../../../Resources_V12/Subroutines/Arithmetic.c **** case 14: if (RHSofBP>>16 & (1 << (15-n)))RHSofDP += 61035; break;
 155:../../../Resources_V12/Subroutines/Arithmetic.c **** case 15: if (RHSofBP>>16 & (1 << (15-n)))RHSofDP += 30518; break;}}
 2955               		.loc 3 155 0
 2956 0c22 AC01      		movw r20,r24
 2957 0c24 7727      		clr r23
 2958 0c26 57FD      		sbrc r21,7
 2959 0c28 7095      		com r23
 2960 0c2a 672F      		mov r22,r23
 2961 0c2c DB01      		movw r26,r22
 2962 0c2e CA01      		movw r24,r20
 2963 0c30 8170      		andi r24,1
 2964 0c32 9927      		clr r25
 2965 0c34 AA27      		clr r26
 2966 0c36 BB27      		clr r27
 2967 0c38 8DA7      		std Y+45,r24
 2968 0c3a 9EA7      		std Y+46,r25
 2969 0c3c AFA7      		std Y+47,r26
 2970 0c3e B8AB      		std Y+48,r27
 140:../../../Resources_V12/Subroutines/Arithmetic.c **** case 1: if (RHSofBP>>16 & (1 << (15-n)))RHSofDP += 500000000; break;
 2971               		.loc 3 140 0
 2972 0c40 DB01      		movw r26,r22
 2973 0c42 CA01      		movw r24,r20
 2974 0c44 8827      		clr r24
 2975 0c46 9078      		andi r25,128
 2976 0c48 8983      		std Y+1,r24
 2977 0c4a 9A83      		std Y+2,r25
 2978 0c4c AB83      		std Y+3,r26
 2979 0c4e BC83      		std Y+4,r27
 141:../../../Resources_V12/Subroutines/Arithmetic.c **** case 2: if (RHSofBP>>16 & (1 << (15-n)))RHSofDP += 250000000; break;
 2980               		.loc 3 141 0
 2981 0c50 DB01      		movw r26,r22
 2982 0c52 CA01      		movw r24,r20
 2983 0c54 8827      		clr r24
 2984 0c56 9074      		andi r25,64
 2985 0c58 AA27      		clr r26
 2986 0c5a BB27      		clr r27
 2987 0c5c 8D83      		std Y+5,r24
 2988 0c5e 9E83      		std Y+6,r25
 2989 0c60 AF83      		std Y+7,r26
 2990 0c62 B887      		std Y+8,r27
 142:../../../Resources_V12/Subroutines/Arithmetic.c **** case 3: if (RHSofBP>>16 & (1 << (15-n)))RHSofDP += 125000000; break;
 2991               		.loc 3 142 0
 2992 0c64 DB01      		movw r26,r22
 2993 0c66 CA01      		movw r24,r20
 2994 0c68 8827      		clr r24
 2995 0c6a 9072      		andi r25,32
 2996 0c6c AA27      		clr r26
 2997 0c6e BB27      		clr r27
 2998 0c70 8987      		std Y+9,r24
 2999 0c72 9A87      		std Y+10,r25
 3000 0c74 AB87      		std Y+11,r26
 3001 0c76 BC87      		std Y+12,r27
 143:../../../Resources_V12/Subroutines/Arithmetic.c **** case 4: if (RHSofBP>>16 & (1 << (15-n)))RHSofDP += 62500000; break;
 3002               		.loc 3 143 0
 3003 0c78 DB01      		movw r26,r22
 3004 0c7a CA01      		movw r24,r20
 3005 0c7c 8827      		clr r24
 3006 0c7e 9071      		andi r25,16
 3007 0c80 AA27      		clr r26
 3008 0c82 BB27      		clr r27
 3009 0c84 8D87      		std Y+13,r24
 3010 0c86 9E87      		std Y+14,r25
 3011 0c88 AF87      		std Y+15,r26
 3012 0c8a B88B      		std Y+16,r27
 144:../../../Resources_V12/Subroutines/Arithmetic.c **** case 5: if (RHSofBP>>16 & (1 << (15-n)))RHSofDP += 31250000; break;
 3013               		.loc 3 144 0
 3014 0c8c DB01      		movw r26,r22
 3015 0c8e CA01      		movw r24,r20
 3016 0c90 8827      		clr r24
 3017 0c92 9870      		andi r25,8
 3018 0c94 AA27      		clr r26
 3019 0c96 BB27      		clr r27
 3020 0c98 898B      		std Y+17,r24
 3021 0c9a 9A8B      		std Y+18,r25
 3022 0c9c AB8B      		std Y+19,r26
 3023 0c9e BC8B      		std Y+20,r27
 145:../../../Resources_V12/Subroutines/Arithmetic.c **** case 6: if (RHSofBP>>16 & (1 << (15-n)))RHSofDP += 15625000; break;
 3024               		.loc 3 145 0
 3025 0ca0 DB01      		movw r26,r22
 3026 0ca2 CA01      		movw r24,r20
 3027 0ca4 8827      		clr r24
 3028 0ca6 9470      		andi r25,4
 3029 0ca8 AA27      		clr r26
 3030 0caa BB27      		clr r27
 3031 0cac 8D8B      		std Y+21,r24
 3032 0cae 9E8B      		std Y+22,r25
 3033 0cb0 AF8B      		std Y+23,r26
 3034 0cb2 B88F      		std Y+24,r27
 146:../../../Resources_V12/Subroutines/Arithmetic.c **** case 7: if (RHSofBP>>16 & (1 << (15-n)))RHSofDP += 7812500; break;
 3035               		.loc 3 146 0
 3036 0cb4 DB01      		movw r26,r22
 3037 0cb6 CA01      		movw r24,r20
 3038 0cb8 8827      		clr r24
 3039 0cba 9270      		andi r25,2
 3040 0cbc AA27      		clr r26
 3041 0cbe BB27      		clr r27
 3042 0cc0 898F      		std Y+25,r24
 3043 0cc2 9A8F      		std Y+26,r25
 3044 0cc4 AB8F      		std Y+27,r26
 3045 0cc6 BC8F      		std Y+28,r27
 147:../../../Resources_V12/Subroutines/Arithmetic.c **** case 8: if (RHSofBP>>16 & (1 << (15-n)))RHSofDP += 3906250; break;
 3046               		.loc 3 147 0
 3047 0cc8 DB01      		movw r26,r22
 3048 0cca CA01      		movw r24,r20
 3049 0ccc 8827      		clr r24
 3050 0cce 9170      		andi r25,1
 3051 0cd0 AA27      		clr r26
 3052 0cd2 BB27      		clr r27
 3053 0cd4 8D8F      		std Y+29,r24
 3054 0cd6 9E8F      		std Y+30,r25
 3055 0cd8 AF8F      		std Y+31,r26
 3056 0cda B8A3      		std Y+32,r27
 148:../../../Resources_V12/Subroutines/Arithmetic.c **** case 9: if (RHSofBP>>16 & (1 << (15-n)))RHSofDP += 1953125; break;
 3057               		.loc 3 148 0
 3058 0cdc DB01      		movw r26,r22
 3059 0cde CA01      		movw r24,r20
 3060 0ce0 8078      		andi r24,128
 3061 0ce2 9927      		clr r25
 3062 0ce4 AA27      		clr r26
 3063 0ce6 BB27      		clr r27
 3064 0ce8 89A3      		std Y+33,r24
 3065 0cea 9AA3      		std Y+34,r25
 3066 0cec ABA3      		std Y+35,r26
 3067 0cee BCA3      		std Y+36,r27
 149:../../../Resources_V12/Subroutines/Arithmetic.c **** case 10: if (RHSofBP>>16 & (1 << (15-n)))RHSofDP += 976563; break;
 3068               		.loc 3 149 0
 3069 0cf0 DB01      		movw r26,r22
 3070 0cf2 CA01      		movw r24,r20
 3071 0cf4 8074      		andi r24,64
 3072 0cf6 9927      		clr r25
 3073 0cf8 AA27      		clr r26
 3074 0cfa BB27      		clr r27
 3075 0cfc 8DA3      		std Y+37,r24
 3076 0cfe 9EA3      		std Y+38,r25
 3077 0d00 AFA3      		std Y+39,r26
 3078 0d02 B8A7      		std Y+40,r27
 150:../../../Resources_V12/Subroutines/Arithmetic.c **** case 11: if (RHSofBP>>16 & (1 << (15-n)))RHSofDP += 488281; break;
 3079               		.loc 3 150 0
 3080 0d04 DB01      		movw r26,r22
 3081 0d06 CA01      		movw r24,r20
 3082 0d08 8072      		andi r24,32
 3083 0d0a 9927      		clr r25
 3084 0d0c AA27      		clr r26
 3085 0d0e BB27      		clr r27
 3086 0d10 89A7      		std Y+41,r24
 3087 0d12 9AA7      		std Y+42,r25
 3088 0d14 ABA7      		std Y+43,r26
 3089 0d16 BCA7      		std Y+44,r27
 151:../../../Resources_V12/Subroutines/Arithmetic.c **** case 12: if (RHSofBP>>16 & (1 << (15-n)))RHSofDP += 244141; break;
 3090               		.loc 3 151 0
 3091 0d18 DB01      		movw r26,r22
 3092 0d1a CA01      		movw r24,r20
 3093 0d1c 8071      		andi r24,16
 3094 0d1e 9927      		clr r25
 3095 0d20 AA27      		clr r26
 3096 0d22 BB27      		clr r27
 3097 0d24 8BAB      		std Y+51,r24
 3098 0d26 9CAB      		std Y+52,r25
 3099 0d28 ADAB      		std Y+53,r26
 3100 0d2a BEAB      		std Y+54,r27
 152:../../../Resources_V12/Subroutines/Arithmetic.c **** case 13: if (RHSofBP>>16 & (1 << (15-n)))RHSofDP += 122070; break;
 3101               		.loc 3 152 0
 3102 0d2c 4A01      		movw r8,r20
 3103 0d2e 5B01      		movw r10,r22
 3104 0d30 98E0      		ldi r25,8
 3105 0d32 8922      		and r8,r25
 3106 0d34 9924      		clr r9
 3107 0d36 AA24      		clr r10
 3108 0d38 BB24      		clr r11
 153:../../../Resources_V12/Subroutines/Arithmetic.c **** case 14: if (RHSofBP>>16 & (1 << (15-n)))RHSofDP += 61035; break;
 3109               		.loc 3 153 0
 3110 0d3a 2A01      		movw r4,r20
 3111 0d3c 3B01      		movw r6,r22
 3112 0d3e A4E0      		ldi r26,4
 3113 0d40 4A22      		and r4,r26
 3114 0d42 5524      		clr r5
 3115 0d44 6624      		clr r6
 3116 0d46 7724      		clr r7
 154:../../../Resources_V12/Subroutines/Arithmetic.c **** case 15: if (RHSofBP>>16 & (1 << (15-n)))RHSofDP += 30518; break;}}
 3117               		.loc 3 154 0
 3118 0d48 4270      		andi r20,2
 3119 0d4a 5527      		clr r21
 3120 0d4c 6627      		clr r22
 3121 0d4e 7727      		clr r23
 139:../../../Resources_V12/Subroutines/Arithmetic.c **** case 0: if (RHSofBP>>16 & (1 << (15-n)))RHSofDP -= 1000000000; break;
 3122               		.loc 3 139 0
 3123 0d50 C12C      		mov r12,__zero_reg__
 3124 0d52 D12C      		mov r13,__zero_reg__
 3125               	.LBE68:
 135:../../../Resources_V12/Subroutines/Arithmetic.c **** unsigned int RHSofBP_LB;
 3126               		.loc 3 135 0
 3127 0d54 80E0      		ldi r24,0
 3128 0d56 90E0      		ldi r25,0
 3129 0d58 DC01      		movw r26,r24
 3130               	.LVL210:
 3131               	.L286:
 3132               	.LBB69:
 139:../../../Resources_V12/Subroutines/Arithmetic.c **** case 0: if (RHSofBP>>16 & (1 << (15-n)))RHSofDP -= 1000000000; break;
 3133               		.loc 3 139 0 discriminator 4
 3134 0d5a F601      		movw r30,r12
 3135 0d5c 3197      		sbiw r30,1
 3136 0d5e EF30      		cpi r30,15
 3137 0d60 F105      		cpc r31,__zero_reg__
 3138 0d62 00F4      		brsh .L268
 3139 0d64 E050      		subi r30,lo8(-(gs(.L270)))
 3140 0d66 F040      		sbci r31,hi8(-(gs(.L270)))
 3141 0d68 0C94 0000 		jmp __tablejump2__
 3142               		.section	.progmem.gcc_sw_table,"a",@progbits
 3143               		.p2align	1
 3144               	.L270:
 3145 003a 0000      		.word gs(.L269)
 3146 003c 0000      		.word gs(.L271)
 3147 003e 0000      		.word gs(.L272)
 3148 0040 0000      		.word gs(.L273)
 3149 0042 0000      		.word gs(.L274)
 3150 0044 0000      		.word gs(.L275)
 3151 0046 0000      		.word gs(.L276)
 3152 0048 0000      		.word gs(.L277)
 3153 004a 0000      		.word gs(.L278)
 3154 004c 0000      		.word gs(.L279)
 3155 004e 0000      		.word gs(.L280)
 3156 0050 0000      		.word gs(.L281)
 3157 0052 0000      		.word gs(.L282)
 3158 0054 0000      		.word gs(.L283)
 3159 0056 0000      		.word gs(.L284)
 3160               		.text
 3161               	.L268:
 140:../../../Resources_V12/Subroutines/Arithmetic.c **** case 1: if (RHSofBP>>16 & (1 << (15-n)))RHSofDP += 500000000; break;
 3162               		.loc 3 140 0
 3163 0d6c E980      		ldd r14,Y+1
 3164 0d6e FA80      		ldd r15,Y+2
 3165 0d70 0B81      		ldd r16,Y+3
 3166 0d72 1C81      		ldd r17,Y+4
 3167 0d74 EF28      		or r14,r15
 3168 0d76 E02A      		or r14,r16
 3169 0d78 E12A      		or r14,r17
 3170 0d7a 01F4      		brne .+2
 3171 0d7c 00C0      		rjmp .L285
 140:../../../Resources_V12/Subroutines/Arithmetic.c **** case 1: if (RHSofBP>>16 & (1 << (15-n)))RHSofDP += 500000000; break;
 3172               		.loc 3 140 0 is_stmt 0 discriminator 1
 3173 0d7e 9A5C      		subi r25,-54
 3174 0d80 AA49      		sbci r26,-102
 3175 0d82 BB43      		sbci r27,59
 3176               	.LVL211:
 3177 0d84 00C0      		rjmp .L285
 3178               	.L269:
 141:../../../Resources_V12/Subroutines/Arithmetic.c **** case 2: if (RHSofBP>>16 & (1 << (15-n)))RHSofDP += 250000000; break;
 3179               		.loc 3 141 0 is_stmt 1
 3180 0d86 ED80      		ldd r14,Y+5
 3181 0d88 FE80      		ldd r15,Y+6
 3182 0d8a 0F81      		ldd r16,Y+7
 3183 0d8c 1885      		ldd r17,Y+8
 3184 0d8e EF28      		or r14,r15
 3185 0d90 E02A      		or r14,r16
 3186 0d92 E12A      		or r14,r17
 3187 0d94 01F4      		brne .+2
 3188 0d96 00C0      		rjmp .L285
 141:../../../Resources_V12/Subroutines/Arithmetic.c **** case 2: if (RHSofBP>>16 & (1 << (15-n)))RHSofDP += 250000000; break;
 3189               		.loc 3 141 0 is_stmt 0 discriminator 1
 3190 0d98 9B59      		subi r25,-101
 3191 0d9a A243      		sbci r26,50
 3192 0d9c B24E      		sbci r27,-30
 3193               	.LVL212:
 3194 0d9e 00C0      		rjmp .L285
 3195               	.L271:
 142:../../../Resources_V12/Subroutines/Arithmetic.c **** case 3: if (RHSofBP>>16 & (1 << (15-n)))RHSofDP += 125000000; break;
 3196               		.loc 3 142 0 is_stmt 1
 3197 0da0 E984      		ldd r14,Y+9
 3198 0da2 FA84      		ldd r15,Y+10
 3199 0da4 0B85      		ldd r16,Y+11
 3200 0da6 1C85      		ldd r17,Y+12
 3201 0da8 EF28      		or r14,r15
 3202 0daa E02A      		or r14,r16
 3203 0dac E12A      		or r14,r17
 3204 0dae 01F4      		brne .+2
 3205 0db0 00C0      		rjmp .L285
 142:../../../Resources_V12/Subroutines/Arithmetic.c **** case 3: if (RHSofBP>>16 & (1 << (15-n)))RHSofDP += 125000000; break;
 3206               		.loc 3 142 0 is_stmt 0 discriminator 1
 3207 0db2 8058      		subi r24,-128
 3208 0db4 9D44      		sbci r25,77
 3209 0db6 A941      		sbci r26,25
 3210 0db8 B14F      		sbci r27,-15
 3211               	.LVL213:
 3212 0dba 00C0      		rjmp .L285
 3213               	.L272:
 143:../../../Resources_V12/Subroutines/Arithmetic.c **** case 4: if (RHSofBP>>16 & (1 << (15-n)))RHSofDP += 62500000; break;
 3214               		.loc 3 143 0 is_stmt 1
 3215 0dbc ED84      		ldd r14,Y+13
 3216 0dbe FE84      		ldd r15,Y+14
 3217 0dc0 0F85      		ldd r16,Y+15
 3218 0dc2 1889      		ldd r17,Y+16
 3219 0dc4 EF28      		or r14,r15
 3220 0dc6 E02A      		or r14,r16
 3221 0dc8 E12A      		or r14,r17
 3222 0dca 01F4      		brne .+2
 3223 0dcc 00C0      		rjmp .L285
 143:../../../Resources_V12/Subroutines/Arithmetic.c **** case 4: if (RHSofBP>>16 & (1 << (15-n)))RHSofDP += 62500000; break;
 3224               		.loc 3 143 0 is_stmt 0 discriminator 1
 3225 0dce 805C      		subi r24,-64
 3226 0dd0 964A      		sbci r25,-90
 3227 0dd2 AC48      		sbci r26,-116
 3228 0dd4 B84F      		sbci r27,-8
 3229               	.LVL214:
 3230 0dd6 00C0      		rjmp .L285
 3231               	.L273:
 144:../../../Resources_V12/Subroutines/Arithmetic.c **** case 5: if (RHSofBP>>16 & (1 << (15-n)))RHSofDP += 31250000; break;
 3232               		.loc 3 144 0 is_stmt 1
 3233 0dd8 E988      		ldd r14,Y+17
 3234 0dda FA88      		ldd r15,Y+18
 3235 0ddc 0B89      		ldd r16,Y+19
 3236 0dde 1C89      		ldd r17,Y+20
 3237 0de0 EF28      		or r14,r15
 3238 0de2 E02A      		or r14,r16
 3239 0de4 E12A      		or r14,r17
 3240 0de6 01F4      		brne .+2
 3241 0de8 00C0      		rjmp .L285
 144:../../../Resources_V12/Subroutines/Arithmetic.c **** case 5: if (RHSofBP>>16 & (1 << (15-n)))RHSofDP += 31250000; break;
 3242               		.loc 3 144 0 is_stmt 0 discriminator 1
 3243 0dea 8056      		subi r24,96
 3244 0dec 9345      		sbci r25,83
 3245 0dee A644      		sbci r26,70
 3246 0df0 BC4F      		sbci r27,-4
 3247               	.LVL215:
 3248 0df2 00C0      		rjmp .L285
 3249               	.L274:
 145:../../../Resources_V12/Subroutines/Arithmetic.c **** case 6: if (RHSofBP>>16 & (1 << (15-n)))RHSofDP += 15625000; break;
 3250               		.loc 3 145 0 is_stmt 1
 3251 0df4 ED88      		ldd r14,Y+21
 3252 0df6 FE88      		ldd r15,Y+22
 3253 0df8 0F89      		ldd r16,Y+23
 3254 0dfa 188D      		ldd r17,Y+24
 3255 0dfc EF28      		or r14,r15
 3256 0dfe E02A      		or r14,r16
 3257 0e00 E12A      		or r14,r17
 3258 0e02 01F4      		brne .+2
 3259 0e04 00C0      		rjmp .L285
 145:../../../Resources_V12/Subroutines/Arithmetic.c **** case 6: if (RHSofBP>>16 & (1 << (15-n)))RHSofDP += 15625000; break;
 3260               		.loc 3 145 0 is_stmt 0 discriminator 1
 3261 0e06 805B      		subi r24,-80
 3262 0e08 9942      		sbci r25,41
 3263 0e0a A342      		sbci r26,35
 3264 0e0c BE4F      		sbci r27,-2
 3265               	.LVL216:
 3266 0e0e 00C0      		rjmp .L285
 3267               	.L275:
 146:../../../Resources_V12/Subroutines/Arithmetic.c **** case 7: if (RHSofBP>>16 & (1 << (15-n)))RHSofDP += 7812500; break;
 3268               		.loc 3 146 0 is_stmt 1
 3269 0e10 E98C      		ldd r14,Y+25
 3270 0e12 FA8C      		ldd r15,Y+26
 3271 0e14 0B8D      		ldd r16,Y+27
 3272 0e16 1C8D      		ldd r17,Y+28
 3273 0e18 EF28      		or r14,r15
 3274 0e1a E02A      		or r14,r16
 3275 0e1c E12A      		or r14,r17
 3276 0e1e 01F4      		brne .+2
 3277 0e20 00C0      		rjmp .L285
 146:../../../Resources_V12/Subroutines/Arithmetic.c **** case 7: if (RHSofBP>>16 & (1 << (15-n)))RHSofDP += 7812500; break;
 3278               		.loc 3 146 0 is_stmt 0 discriminator 1
 3279 0e22 885D      		subi r24,-40
 3280 0e24 9449      		sbci r25,-108
 3281 0e26 A141      		sbci r26,17
 3282 0e28 BF4F      		sbci r27,-1
 3283               	.LVL217:
 3284 0e2a 00C0      		rjmp .L285
 3285               	.L276:
 147:../../../Resources_V12/Subroutines/Arithmetic.c **** case 8: if (RHSofBP>>16 & (1 << (15-n)))RHSofDP += 3906250; break;
 3286               		.loc 3 147 0 is_stmt 1
 3287 0e2c ED8C      		ldd r14,Y+29
 3288 0e2e FE8C      		ldd r15,Y+30
 3289 0e30 0F8D      		ldd r16,Y+31
 3290 0e32 18A1      		ldd r17,Y+32
 3291 0e34 EF28      		or r14,r15
 3292 0e36 E02A      		or r14,r16
 3293 0e38 E12A      		or r14,r17
 3294 0e3a 01F4      		brne .+2
 3295 0e3c 00C0      		rjmp .L285
 147:../../../Resources_V12/Subroutines/Arithmetic.c **** case 8: if (RHSofBP>>16 & (1 << (15-n)))RHSofDP += 3906250; break;
 3296               		.loc 3 147 0 is_stmt 0 discriminator 1
 3297 0e3e 8C56      		subi r24,108
 3298 0e40 9A4C      		sbci r25,-54
 3299 0e42 A848      		sbci r26,-120
 3300 0e44 BF4F      		sbci r27,-1
 3301               	.LVL218:
 3302 0e46 00C0      		rjmp .L285
 3303               	.L277:
 148:../../../Resources_V12/Subroutines/Arithmetic.c **** case 9: if (RHSofBP>>16 & (1 << (15-n)))RHSofDP += 1953125; break;
 3304               		.loc 3 148 0 is_stmt 1
 3305 0e48 E9A0      		ldd r14,Y+33
 3306 0e4a FAA0      		ldd r15,Y+34
 3307 0e4c 0BA1      		ldd r16,Y+35
 3308 0e4e 1CA1      		ldd r17,Y+36
 3309 0e50 EF28      		or r14,r15
 3310 0e52 E02A      		or r14,r16
 3311 0e54 E12A      		or r14,r17
 3312 0e56 01F4      		brne .+2
 3313 0e58 00C0      		rjmp .L285
 148:../../../Resources_V12/Subroutines/Arithmetic.c **** case 9: if (RHSofBP>>16 & (1 << (15-n)))RHSofDP += 1953125; break;
 3314               		.loc 3 148 0 is_stmt 0 discriminator 1
 3315 0e5a 8653      		subi r24,54
 3316 0e5c 9546      		sbci r25,101
 3317 0e5e A44C      		sbci r26,-60
 3318 0e60 BF4F      		sbci r27,-1
 3319               	.LVL219:
 3320 0e62 00C0      		rjmp .L285
 3321               	.L278:
 149:../../../Resources_V12/Subroutines/Arithmetic.c **** case 10: if (RHSofBP>>16 & (1 << (15-n)))RHSofDP += 976563; break;
 3322               		.loc 3 149 0 is_stmt 1
 3323 0e64 EDA0      		ldd r14,Y+37
 3324 0e66 FEA0      		ldd r15,Y+38
 3325 0e68 0FA1      		ldd r16,Y+39
 3326 0e6a 18A5      		ldd r17,Y+40
 3327 0e6c EF28      		or r14,r15
 3328 0e6e E02A      		or r14,r16
 3329 0e70 E12A      		or r14,r17
 3330 0e72 01F4      		brne .+2
 3331 0e74 00C0      		rjmp .L285
 149:../../../Resources_V12/Subroutines/Arithmetic.c **** case 10: if (RHSofBP>>16 & (1 << (15-n)))RHSofDP += 976563; break;
 3332               		.loc 3 149 0 is_stmt 0 discriminator 1
 3333 0e76 8B59      		subi r24,-101
 3334 0e78 9243      		sbci r25,50
 3335 0e7a A24E      		sbci r26,-30
 3336 0e7c BF4F      		sbci r27,-1
 3337               	.LVL220:
 3338 0e7e 00C0      		rjmp .L285
 3339               	.L279:
 150:../../../Resources_V12/Subroutines/Arithmetic.c **** case 11: if (RHSofBP>>16 & (1 << (15-n)))RHSofDP += 488281; break;
 3340               		.loc 3 150 0 is_stmt 1
 3341 0e80 E9A4      		ldd r14,Y+41
 3342 0e82 FAA4      		ldd r15,Y+42
 3343 0e84 0BA5      		ldd r16,Y+43
 3344 0e86 1CA5      		ldd r17,Y+44
 3345 0e88 EF28      		or r14,r15
 3346 0e8a E02A      		or r14,r16
 3347 0e8c E12A      		or r14,r17
 3348 0e8e 01F0      		breq .L285
 150:../../../Resources_V12/Subroutines/Arithmetic.c **** case 11: if (RHSofBP>>16 & (1 << (15-n)))RHSofDP += 488281; break;
 3349               		.loc 3 150 0 is_stmt 0 discriminator 1
 3350 0e90 8D54      		subi r24,77
 3351 0e92 9941      		sbci r25,25
 3352 0e94 A14F      		sbci r26,-15
 3353 0e96 BF4F      		sbci r27,-1
 3354               	.LVL221:
 3355 0e98 00C0      		rjmp .L285
 3356               	.L280:
 151:../../../Resources_V12/Subroutines/Arithmetic.c **** case 12: if (RHSofBP>>16 & (1 << (15-n)))RHSofDP += 244141; break;
 3357               		.loc 3 151 0 is_stmt 1
 3358 0e9a EBA8      		ldd r14,Y+51
 3359 0e9c FCA8      		ldd r15,Y+52
 3360 0e9e 0DA9      		ldd r16,Y+53
 3361 0ea0 1EA9      		ldd r17,Y+54
 3362 0ea2 EF28      		or r14,r15
 3363 0ea4 E02A      		or r14,r16
 3364 0ea6 E12A      		or r14,r17
 3365 0ea8 01F0      		breq .L285
 151:../../../Resources_V12/Subroutines/Arithmetic.c **** case 12: if (RHSofBP>>16 & (1 << (15-n)))RHSofDP += 244141; break;
 3366               		.loc 3 151 0 is_stmt 0 discriminator 1
 3367 0eaa 875A      		subi r24,-89
 3368 0eac 9C48      		sbci r25,-116
 3369 0eae A84F      		sbci r26,-8
 3370 0eb0 BF4F      		sbci r27,-1
 3371               	.LVL222:
 3372 0eb2 00C0      		rjmp .L285
 3373               	.L281:
 152:../../../Resources_V12/Subroutines/Arithmetic.c **** case 13: if (RHSofBP>>16 & (1 << (15-n)))RHSofDP += 122070; break;
 3374               		.loc 3 152 0 is_stmt 1
 3375 0eb4 8114      		cp r8,__zero_reg__
 3376 0eb6 9104      		cpc r9,__zero_reg__
 3377 0eb8 A104      		cpc r10,__zero_reg__
 3378 0eba B104      		cpc r11,__zero_reg__
 3379 0ebc 01F0      		breq .L285
 152:../../../Resources_V12/Subroutines/Arithmetic.c **** case 13: if (RHSofBP>>16 & (1 << (15-n)))RHSofDP += 122070; break;
 3380               		.loc 3 152 0 is_stmt 0 discriminator 1
 3381 0ebe 8355      		subi r24,83
 3382 0ec0 9644      		sbci r25,70
 3383 0ec2 AC4F      		sbci r26,-4
 3384 0ec4 BF4F      		sbci r27,-1
 3385               	.LVL223:
 3386 0ec6 00C0      		rjmp .L285
 3387               	.L282:
 153:../../../Resources_V12/Subroutines/Arithmetic.c **** case 14: if (RHSofBP>>16 & (1 << (15-n)))RHSofDP += 61035; break;
 3388               		.loc 3 153 0 is_stmt 1
 3389 0ec8 4114      		cp r4,__zero_reg__
 3390 0eca 5104      		cpc r5,__zero_reg__
 3391 0ecc 6104      		cpc r6,__zero_reg__
 3392 0ece 7104      		cpc r7,__zero_reg__
 3393 0ed0 01F0      		breq .L285
 153:../../../Resources_V12/Subroutines/Arithmetic.c **** case 14: if (RHSofBP>>16 & (1 << (15-n)))RHSofDP += 61035; break;
 3394               		.loc 3 153 0 is_stmt 0 discriminator 1
 3395 0ed2 8A52      		subi r24,42
 3396 0ed4 9342      		sbci r25,35
 3397 0ed6 AE4F      		sbci r26,-2
 3398 0ed8 BF4F      		sbci r27,-1
 3399               	.LVL224:
 3400 0eda 00C0      		rjmp .L285
 3401               	.L283:
 154:../../../Resources_V12/Subroutines/Arithmetic.c **** case 15: if (RHSofBP>>16 & (1 << (15-n)))RHSofDP += 30518; break;}}
 3402               		.loc 3 154 0 is_stmt 1
 3403 0edc 4115      		cp r20,__zero_reg__
 3404 0ede 5105      		cpc r21,__zero_reg__
 3405 0ee0 6105      		cpc r22,__zero_reg__
 3406 0ee2 7105      		cpc r23,__zero_reg__
 3407 0ee4 01F0      		breq .L285
 154:../../../Resources_V12/Subroutines/Arithmetic.c **** case 15: if (RHSofBP>>16 & (1 << (15-n)))RHSofDP += 30518; break;}}
 3408               		.loc 3 154 0 is_stmt 0 discriminator 1
 3409 0ee6 8559      		subi r24,-107
 3410 0ee8 9141      		sbci r25,17
 3411 0eea AF4F      		sbci r26,-1
 3412 0eec BF4F      		sbci r27,-1
 3413               	.LVL225:
 3414 0eee 00C0      		rjmp .L285
 3415               	.L284:
 3416               		.loc 3 155 0 is_stmt 1
 3417 0ef0 EDA4      		ldd r14,Y+45
 3418 0ef2 FEA4      		ldd r15,Y+46
 3419 0ef4 0FA5      		ldd r16,Y+47
 3420 0ef6 18A9      		ldd r17,Y+48
 3421 0ef8 EF28      		or r14,r15
 3422 0efa E02A      		or r14,r16
 3423 0efc E12A      		or r14,r17
 3424 0efe 01F0      		breq .L285
 3425               		.loc 3 155 0 is_stmt 0 discriminator 1
 3426 0f00 8A5C      		subi r24,-54
 3427 0f02 9848      		sbci r25,-120
 3428 0f04 AF4F      		sbci r26,-1
 3429 0f06 BF4F      		sbci r27,-1
 3430               	.LVL226:
 3431               	.L285:
 139:../../../Resources_V12/Subroutines/Arithmetic.c **** case 0: if (RHSofBP>>16 & (1 << (15-n)))RHSofDP -= 1000000000; break;
 3432               		.loc 3 139 0 is_stmt 1 discriminator 2
 3433 0f08 0FEF      		ldi r16,-1
 3434 0f0a C01A      		sub r12,r16
 3435 0f0c D00A      		sbc r13,r16
 3436               	.LVL227:
 3437 0f0e 10E1      		ldi r17,16
 3438 0f10 C116      		cp r12,r17
 3439 0f12 D104      		cpc r13,__zero_reg__
 3440 0f14 01F0      		breq .+2
 3441 0f16 00C0      		rjmp .L286
 3442 0f18 40E0      		ldi r20,0
 3443 0f1a 50E0      		ldi r21,0
 3444               	.LBE69:
 3445               	.LBB70:
 156:../../../Resources_V12/Subroutines/Arithmetic.c **** for(int n = 0; n <= 15; n++){switch (n){
 157:../../../Resources_V12/Subroutines/Arithmetic.c **** case 0: if (RHSofBP_LB & (1 << (15-n)))RHSofDP +=  15259; break;
 158:../../../Resources_V12/Subroutines/Arithmetic.c **** case 1: if (RHSofBP_LB & (1 << (15-n)))RHSofDP += 7629; break;
 159:../../../Resources_V12/Subroutines/Arithmetic.c **** case 2: if (RHSofBP_LB & (1 << (15-n)))RHSofDP += 3815; break;
 160:../../../Resources_V12/Subroutines/Arithmetic.c **** case 3: if (RHSofBP_LB & (1 << (15-n)))RHSofDP += 1907; break;
 161:../../../Resources_V12/Subroutines/Arithmetic.c **** case 4: if (RHSofBP_LB & (1 << (15-n)))RHSofDP += 954; break;
 162:../../../Resources_V12/Subroutines/Arithmetic.c **** case 5: if (RHSofBP_LB & (1 << (15-n)))RHSofDP += 477; break;
 163:../../../Resources_V12/Subroutines/Arithmetic.c **** case 6: if (RHSofBP_LB & (1 << (15-n)))RHSofDP += 238; break;
 164:../../../Resources_V12/Subroutines/Arithmetic.c **** case 7: if (RHSofBP_LB & (1 << (15-n)))RHSofDP += 119; break;
 165:../../../Resources_V12/Subroutines/Arithmetic.c **** case 8: if (RHSofBP_LB & (1 << (15-n)))RHSofDP += 60; break;
 166:../../../Resources_V12/Subroutines/Arithmetic.c **** case 9: if (RHSofBP_LB & (1 << (15-n)))RHSofDP += 30; break;
 167:../../../Resources_V12/Subroutines/Arithmetic.c **** case 10: if (RHSofBP_LB & (1 << (15-n)))RHSofDP += 15; break;
 168:../../../Resources_V12/Subroutines/Arithmetic.c **** case 11: if (RHSofBP_LB & (1 << (15-n)))RHSofDP += 7; break;
 169:../../../Resources_V12/Subroutines/Arithmetic.c **** case 12: if (RHSofBP_LB & (1 << (15-n)))RHSofDP += 4; break;
 170:../../../Resources_V12/Subroutines/Arithmetic.c **** case 13: if (RHSofBP_LB & (1 << (15-n)))RHSofDP += 2; break;
 171:../../../Resources_V12/Subroutines/Arithmetic.c **** case 14: if (RHSofBP_LB & (1 << (15-n)))RHSofDP += 1; break;
 3446               		.loc 3 171 0 discriminator 4
 3447 0f1c B901      		movw r22,r18
 3448               	.LVL228:
 3449 0f1e 6270      		andi r22,2
 3450 0f20 7727      		clr r23
 3451 0f22 7A83      		std Y+2,r23
 3452 0f24 6983      		std Y+1,r22
 170:../../../Resources_V12/Subroutines/Arithmetic.c **** case 14: if (RHSofBP_LB & (1 << (15-n)))RHSofDP += 1; break;
 3453               		.loc 3 170 0 discriminator 4
 3454 0f26 8901      		movw r16,r18
 3455 0f28 0470      		andi r16,4
 3456 0f2a 1127      		clr r17
 3457 0f2c 1E83      		std Y+6,r17
 3458 0f2e 0D83      		std Y+5,r16
 169:../../../Resources_V12/Subroutines/Arithmetic.c **** case 13: if (RHSofBP_LB & (1 << (15-n)))RHSofDP += 2; break;
 3459               		.loc 3 169 0 discriminator 4
 3460 0f30 B901      		movw r22,r18
 3461 0f32 6870      		andi r22,8
 3462 0f34 7727      		clr r23
 3463 0f36 7A87      		std Y+10,r23
 3464 0f38 6987      		std Y+9,r22
 168:../../../Resources_V12/Subroutines/Arithmetic.c **** case 12: if (RHSofBP_LB & (1 << (15-n)))RHSofDP += 4; break;
 3465               		.loc 3 168 0 discriminator 4
 3466 0f3a 8901      		movw r16,r18
 3467 0f3c 0071      		andi r16,16
 3468 0f3e 1127      		clr r17
 3469 0f40 1E87      		std Y+14,r17
 3470 0f42 0D87      		std Y+13,r16
 167:../../../Resources_V12/Subroutines/Arithmetic.c **** case 11: if (RHSofBP_LB & (1 << (15-n)))RHSofDP += 7; break;
 3471               		.loc 3 167 0 discriminator 4
 3472 0f44 1901      		movw r2,r18
 3473 0f46 10E2      		ldi r17,32
 3474 0f48 2122      		and r2,r17
 3475 0f4a 3324      		clr r3
 166:../../../Resources_V12/Subroutines/Arithmetic.c **** case 10: if (RHSofBP_LB & (1 << (15-n)))RHSofDP += 15; break;
 3476               		.loc 3 166 0 discriminator 4
 3477 0f4c 8901      		movw r16,r18
 3478 0f4e 0074      		andi r16,64
 3479 0f50 1127      		clr r17
 165:../../../Resources_V12/Subroutines/Arithmetic.c **** case 9: if (RHSofBP_LB & (1 << (15-n)))RHSofDP += 30; break;
 3480               		.loc 3 165 0 discriminator 4
 3481 0f52 2901      		movw r4,r18
 3482 0f54 60E8      		ldi r22,128
 3483 0f56 4622      		and r4,r22
 3484 0f58 5524      		clr r5
 164:../../../Resources_V12/Subroutines/Arithmetic.c **** case 8: if (RHSofBP_LB & (1 << (15-n)))RHSofDP += 60; break;
 3485               		.loc 3 164 0 discriminator 4
 3486 0f5a 3901      		movw r6,r18
 3487 0f5c 6624      		clr r6
 3488 0f5e 71E0      		ldi r23,1
 3489 0f60 7722      		and r7,r23
 163:../../../Resources_V12/Subroutines/Arithmetic.c **** case 7: if (RHSofBP_LB & (1 << (15-n)))RHSofDP += 119; break;
 3490               		.loc 3 163 0 discriminator 4
 3491 0f62 4901      		movw r8,r18
 3492 0f64 8824      		clr r8
 3493 0f66 E2E0      		ldi r30,2
 3494 0f68 9E22      		and r9,r30
 162:../../../Resources_V12/Subroutines/Arithmetic.c **** case 6: if (RHSofBP_LB & (1 << (15-n)))RHSofDP += 238; break;
 3495               		.loc 3 162 0 discriminator 4
 3496 0f6a B901      		movw r22,r18
 3497 0f6c 6627      		clr r22
 3498 0f6e 7470      		andi r23,4
 161:../../../Resources_V12/Subroutines/Arithmetic.c **** case 5: if (RHSofBP_LB & (1 << (15-n)))RHSofDP += 477; break;
 3499               		.loc 3 161 0 discriminator 4
 3500 0f70 F901      		movw r30,r18
 3501 0f72 EE27      		clr r30
 3502 0f74 F870      		andi r31,8
 3503 0f76 FA8B      		std Y+18,r31
 3504 0f78 E98B      		std Y+17,r30
 160:../../../Resources_V12/Subroutines/Arithmetic.c **** case 4: if (RHSofBP_LB & (1 << (15-n)))RHSofDP += 954; break;
 3505               		.loc 3 160 0 discriminator 4
 3506 0f7a 7901      		movw r14,r18
 3507 0f7c EE24      		clr r14
 3508 0f7e F0E1      		ldi r31,16
 3509 0f80 FF22      		and r15,r31
 159:../../../Resources_V12/Subroutines/Arithmetic.c **** case 3: if (RHSofBP_LB & (1 << (15-n)))RHSofDP += 1907; break;
 3510               		.loc 3 159 0 discriminator 4
 3511 0f82 6901      		movw r12,r18
 3512               	.LVL229:
 3513 0f84 CC24      		clr r12
 3514 0f86 E0E2      		ldi r30,32
 3515 0f88 DE22      		and r13,r30
 158:../../../Resources_V12/Subroutines/Arithmetic.c **** case 2: if (RHSofBP_LB & (1 << (15-n)))RHSofDP += 3815; break;
 3516               		.loc 3 158 0 discriminator 4
 3517 0f8a 5901      		movw r10,r18
 3518 0f8c AA24      		clr r10
 3519 0f8e F0E4      		ldi r31,64
 3520 0f90 BF22      		and r11,r31
 157:../../../Resources_V12/Subroutines/Arithmetic.c **** case 1: if (RHSofBP_LB & (1 << (15-n)))RHSofDP += 7629; break;
 3521               		.loc 3 157 0 discriminator 4
 3522 0f92 2227      		clr r18
 3523 0f94 3078      		andi r19,128
 3524               	.L304:
 3525               	.LVL230:
 156:../../../Resources_V12/Subroutines/Arithmetic.c **** case 0: if (RHSofBP_LB & (1 << (15-n)))RHSofDP +=  15259; break;
 3526               		.loc 3 156 0 discriminator 4
 3527 0f96 4F30      		cpi r20,15
 3528 0f98 5105      		cpc r21,__zero_reg__
 3529 0f9a 00F0      		brlo .+2
 3530 0f9c 00C0      		rjmp .L287
 3531 0f9e FA01      		movw r30,r20
 3532 0fa0 E050      		subi r30,lo8(-(gs(.L289)))
 3533 0fa2 F040      		sbci r31,hi8(-(gs(.L289)))
 3534 0fa4 0C94 0000 		jmp __tablejump2__
 3535               		.section	.progmem.gcc_sw_table,"a",@progbits
 3536               		.p2align	1
 3537               	.L289:
 3538 0058 0000      		.word gs(.L288)
 3539 005a 0000      		.word gs(.L290)
 3540 005c 0000      		.word gs(.L291)
 3541 005e 0000      		.word gs(.L292)
 3542 0060 0000      		.word gs(.L293)
 3543 0062 0000      		.word gs(.L294)
 3544 0064 0000      		.word gs(.L295)
 3545 0066 0000      		.word gs(.L296)
 3546 0068 0000      		.word gs(.L297)
 3547 006a 0000      		.word gs(.L298)
 3548 006c 0000      		.word gs(.L299)
 3549 006e 0000      		.word gs(.L300)
 3550 0070 0000      		.word gs(.L301)
 3551 0072 0000      		.word gs(.L302)
 3552 0074 0000      		.word gs(.L303)
 3553               		.text
 3554               	.L288:
 3555               	.LVL231:
 157:../../../Resources_V12/Subroutines/Arithmetic.c **** case 1: if (RHSofBP_LB & (1 << (15-n)))RHSofDP += 7629; break;
 3556               		.loc 3 157 0
 3557 0fa8 2115      		cp r18,__zero_reg__
 3558 0faa 3105      		cpc r19,__zero_reg__
 3559 0fac 01F4      		brne .+2
 3560 0fae 00C0      		rjmp .L287
 157:../../../Resources_V12/Subroutines/Arithmetic.c **** case 1: if (RHSofBP_LB & (1 << (15-n)))RHSofDP += 7629; break;
 3561               		.loc 3 157 0 is_stmt 0 discriminator 1
 3562 0fb0 8556      		subi r24,101
 3563 0fb2 944C      		sbci r25,-60
 3564 0fb4 AF4F      		sbci r26,-1
 3565 0fb6 BF4F      		sbci r27,-1
 3566               	.LVL232:
 3567 0fb8 00C0      		rjmp .L287
 3568               	.LVL233:
 3569               	.L290:
 158:../../../Resources_V12/Subroutines/Arithmetic.c **** case 2: if (RHSofBP_LB & (1 << (15-n)))RHSofDP += 3815; break;
 3570               		.loc 3 158 0 is_stmt 1
 3571 0fba A114      		cp r10,__zero_reg__
 3572 0fbc B104      		cpc r11,__zero_reg__
 3573 0fbe 01F4      		brne .+2
 3574 0fc0 00C0      		rjmp .L287
 158:../../../Resources_V12/Subroutines/Arithmetic.c **** case 2: if (RHSofBP_LB & (1 << (15-n)))RHSofDP += 3815; break;
 3575               		.loc 3 158 0 is_stmt 0 discriminator 1
 3576 0fc2 8353      		subi r24,51
 3577 0fc4 924E      		sbci r25,-30
 3578 0fc6 AF4F      		sbci r26,-1
 3579 0fc8 BF4F      		sbci r27,-1
 3580               	.LVL234:
 3581 0fca 00C0      		rjmp .L287
 3582               	.L291:
 159:../../../Resources_V12/Subroutines/Arithmetic.c **** case 3: if (RHSofBP_LB & (1 << (15-n)))RHSofDP += 1907; break;
 3583               		.loc 3 159 0 is_stmt 1
 3584 0fcc C114      		cp r12,__zero_reg__
 3585 0fce D104      		cpc r13,__zero_reg__
 3586 0fd0 01F4      		brne .+2
 3587 0fd2 00C0      		rjmp .L287
 159:../../../Resources_V12/Subroutines/Arithmetic.c **** case 3: if (RHSofBP_LB & (1 << (15-n)))RHSofDP += 1907; break;
 3588               		.loc 3 159 0 is_stmt 0 discriminator 1
 3589 0fd4 8951      		subi r24,25
 3590 0fd6 914F      		sbci r25,-15
 3591 0fd8 AF4F      		sbci r26,-1
 3592 0fda BF4F      		sbci r27,-1
 3593               	.LVL235:
 3594 0fdc 00C0      		rjmp .L287
 3595               	.L292:
 160:../../../Resources_V12/Subroutines/Arithmetic.c **** case 4: if (RHSofBP_LB & (1 << (15-n)))RHSofDP += 954; break;
 3596               		.loc 3 160 0 is_stmt 1
 3597 0fde E114      		cp r14,__zero_reg__
 3598 0fe0 F104      		cpc r15,__zero_reg__
 3599 0fe2 01F4      		brne .+2
 3600 0fe4 00C0      		rjmp .L287
 160:../../../Resources_V12/Subroutines/Arithmetic.c **** case 4: if (RHSofBP_LB & (1 << (15-n)))RHSofDP += 954; break;
 3601               		.loc 3 160 0 is_stmt 0 discriminator 1
 3602 0fe6 8D58      		subi r24,-115
 3603 0fe8 984F      		sbci r25,-8
 3604 0fea AF4F      		sbci r26,-1
 3605 0fec BF4F      		sbci r27,-1
 3606               	.LVL236:
 3607 0fee 00C0      		rjmp .L287
 3608               	.L293:
 161:../../../Resources_V12/Subroutines/Arithmetic.c **** case 5: if (RHSofBP_LB & (1 << (15-n)))RHSofDP += 477; break;
 3609               		.loc 3 161 0 is_stmt 1
 3610 0ff0 E989      		ldd r30,Y+17
 3611 0ff2 FA89      		ldd r31,Y+18
 3612 0ff4 EF2B      		or r30,r31
 3613 0ff6 01F4      		brne .+2
 3614 0ff8 00C0      		rjmp .L287
 161:../../../Resources_V12/Subroutines/Arithmetic.c **** case 5: if (RHSofBP_LB & (1 << (15-n)))RHSofDP += 477; break;
 3615               		.loc 3 161 0 is_stmt 0 discriminator 1
 3616 0ffa 8654      		subi r24,70
 3617 0ffc 9C4F      		sbci r25,-4
 3618 0ffe AF4F      		sbci r26,-1
 3619 1000 BF4F      		sbci r27,-1
 3620               	.LVL237:
 3621 1002 00C0      		rjmp .L287
 3622               	.L294:
 162:../../../Resources_V12/Subroutines/Arithmetic.c **** case 6: if (RHSofBP_LB & (1 << (15-n)))RHSofDP += 238; break;
 3623               		.loc 3 162 0 is_stmt 1
 3624 1004 6115      		cp r22,__zero_reg__
 3625 1006 7105      		cpc r23,__zero_reg__
 3626 1008 01F4      		brne .+2
 3627 100a 00C0      		rjmp .L287
 162:../../../Resources_V12/Subroutines/Arithmetic.c **** case 6: if (RHSofBP_LB & (1 << (15-n)))RHSofDP += 238; break;
 3628               		.loc 3 162 0 is_stmt 0 discriminator 1
 3629 100c 8352      		subi r24,35
 3630 100e 9E4F      		sbci r25,-2
 3631 1010 AF4F      		sbci r26,-1
 3632 1012 BF4F      		sbci r27,-1
 3633               	.LVL238:
 3634 1014 00C0      		rjmp .L287
 3635               	.L295:
 163:../../../Resources_V12/Subroutines/Arithmetic.c **** case 7: if (RHSofBP_LB & (1 << (15-n)))RHSofDP += 119; break;
 3636               		.loc 3 163 0 is_stmt 1
 3637 1016 8114      		cp r8,__zero_reg__
 3638 1018 9104      		cpc r9,__zero_reg__
 3639 101a 01F4      		brne .+2
 3640 101c 00C0      		rjmp .L287
 163:../../../Resources_V12/Subroutines/Arithmetic.c **** case 7: if (RHSofBP_LB & (1 << (15-n)))RHSofDP += 119; break;
 3641               		.loc 3 163 0 is_stmt 0 discriminator 1
 3642 101e 8251      		subi r24,18
 3643 1020 9F4F      		sbci r25,-1
 3644 1022 AF4F      		sbci r26,-1
 3645 1024 BF4F      		sbci r27,-1
 3646               	.LVL239:
 3647 1026 00C0      		rjmp .L287
 3648               	.L296:
 164:../../../Resources_V12/Subroutines/Arithmetic.c **** case 8: if (RHSofBP_LB & (1 << (15-n)))RHSofDP += 60; break;
 3649               		.loc 3 164 0 is_stmt 1
 3650 1028 6114      		cp r6,__zero_reg__
 3651 102a 7104      		cpc r7,__zero_reg__
 3652 102c 01F0      		breq .L287
 164:../../../Resources_V12/Subroutines/Arithmetic.c **** case 8: if (RHSofBP_LB & (1 << (15-n)))RHSofDP += 60; break;
 3653               		.loc 3 164 0 is_stmt 0 discriminator 1
 3654 102e 8958      		subi r24,-119
 3655 1030 9F4F      		sbci r25,-1
 3656 1032 AF4F      		sbci r26,-1
 3657 1034 BF4F      		sbci r27,-1
 3658               	.LVL240:
 3659 1036 00C0      		rjmp .L287
 3660               	.L297:
 165:../../../Resources_V12/Subroutines/Arithmetic.c **** case 9: if (RHSofBP_LB & (1 << (15-n)))RHSofDP += 30; break;
 3661               		.loc 3 165 0 is_stmt 1
 3662 1038 4114      		cp r4,__zero_reg__
 3663 103a 5104      		cpc r5,__zero_reg__
 3664 103c 01F0      		breq .L287
 165:../../../Resources_V12/Subroutines/Arithmetic.c **** case 9: if (RHSofBP_LB & (1 << (15-n)))RHSofDP += 30; break;
 3665               		.loc 3 165 0 is_stmt 0 discriminator 1
 3666 103e CC96      		adiw r24,60
 3667 1040 A11D      		adc r26,__zero_reg__
 3668 1042 B11D      		adc r27,__zero_reg__
 3669               	.LVL241:
 3670 1044 00C0      		rjmp .L287
 3671               	.L298:
 166:../../../Resources_V12/Subroutines/Arithmetic.c **** case 10: if (RHSofBP_LB & (1 << (15-n)))RHSofDP += 15; break;
 3672               		.loc 3 166 0 is_stmt 1
 3673 1046 0115      		cp r16,__zero_reg__
 3674 1048 1105      		cpc r17,__zero_reg__
 3675 104a 01F0      		breq .L287
 166:../../../Resources_V12/Subroutines/Arithmetic.c **** case 10: if (RHSofBP_LB & (1 << (15-n)))RHSofDP += 15; break;
 3676               		.loc 3 166 0 is_stmt 0 discriminator 1
 3677 104c 4E96      		adiw r24,30
 3678 104e A11D      		adc r26,__zero_reg__
 3679 1050 B11D      		adc r27,__zero_reg__
 3680               	.LVL242:
 3681 1052 00C0      		rjmp .L287
 3682               	.L299:
 167:../../../Resources_V12/Subroutines/Arithmetic.c **** case 11: if (RHSofBP_LB & (1 << (15-n)))RHSofDP += 7; break;
 3683               		.loc 3 167 0 is_stmt 1
 3684 1054 2114      		cp r2,__zero_reg__
 3685 1056 3104      		cpc r3,__zero_reg__
 3686 1058 01F0      		breq .L287
 167:../../../Resources_V12/Subroutines/Arithmetic.c **** case 11: if (RHSofBP_LB & (1 << (15-n)))RHSofDP += 7; break;
 3687               		.loc 3 167 0 is_stmt 0 discriminator 1
 3688 105a 0F96      		adiw r24,15
 3689 105c A11D      		adc r26,__zero_reg__
 3690 105e B11D      		adc r27,__zero_reg__
 3691               	.LVL243:
 3692 1060 00C0      		rjmp .L287
 3693               	.L300:
 168:../../../Resources_V12/Subroutines/Arithmetic.c **** case 12: if (RHSofBP_LB & (1 << (15-n)))RHSofDP += 4; break;
 3694               		.loc 3 168 0 is_stmt 1
 3695 1062 ED85      		ldd r30,Y+13
 3696 1064 FE85      		ldd r31,Y+14
 3697 1066 EF2B      		or r30,r31
 3698 1068 01F0      		breq .L287
 168:../../../Resources_V12/Subroutines/Arithmetic.c **** case 12: if (RHSofBP_LB & (1 << (15-n)))RHSofDP += 4; break;
 3699               		.loc 3 168 0 is_stmt 0 discriminator 1
 3700 106a 0796      		adiw r24,7
 3701 106c A11D      		adc r26,__zero_reg__
 3702 106e B11D      		adc r27,__zero_reg__
 3703               	.LVL244:
 3704 1070 00C0      		rjmp .L287
 3705               	.L301:
 169:../../../Resources_V12/Subroutines/Arithmetic.c **** case 13: if (RHSofBP_LB & (1 << (15-n)))RHSofDP += 2; break;
 3706               		.loc 3 169 0 is_stmt 1
 3707 1072 E985      		ldd r30,Y+9
 3708 1074 FA85      		ldd r31,Y+10
 3709 1076 EF2B      		or r30,r31
 3710 1078 01F0      		breq .L287
 169:../../../Resources_V12/Subroutines/Arithmetic.c **** case 13: if (RHSofBP_LB & (1 << (15-n)))RHSofDP += 2; break;
 3711               		.loc 3 169 0 is_stmt 0 discriminator 1
 3712 107a 0496      		adiw r24,4
 3713 107c A11D      		adc r26,__zero_reg__
 3714 107e B11D      		adc r27,__zero_reg__
 3715               	.LVL245:
 3716 1080 00C0      		rjmp .L287
 3717               	.L302:
 170:../../../Resources_V12/Subroutines/Arithmetic.c **** case 14: if (RHSofBP_LB & (1 << (15-n)))RHSofDP += 1; break;
 3718               		.loc 3 170 0 is_stmt 1
 3719 1082 ED81      		ldd r30,Y+5
 3720 1084 FE81      		ldd r31,Y+6
 3721 1086 EF2B      		or r30,r31
 3722 1088 01F0      		breq .L287
 170:../../../Resources_V12/Subroutines/Arithmetic.c **** case 14: if (RHSofBP_LB & (1 << (15-n)))RHSofDP += 1; break;
 3723               		.loc 3 170 0 is_stmt 0 discriminator 1
 3724 108a 0296      		adiw r24,2
 3725 108c A11D      		adc r26,__zero_reg__
 3726 108e B11D      		adc r27,__zero_reg__
 3727               	.LVL246:
 3728 1090 00C0      		rjmp .L287
 3729               	.L303:
 3730               		.loc 3 171 0 is_stmt 1
 3731 1092 E981      		ldd r30,Y+1
 3732 1094 FA81      		ldd r31,Y+2
 3733 1096 EF2B      		or r30,r31
 3734 1098 01F0      		breq .L287
 3735               		.loc 3 171 0 is_stmt 0 discriminator 1
 3736 109a 0196      		adiw r24,1
 3737 109c A11D      		adc r26,__zero_reg__
 3738 109e B11D      		adc r27,__zero_reg__
 3739               	.LVL247:
 3740               	.L287:
 156:../../../Resources_V12/Subroutines/Arithmetic.c **** case 0: if (RHSofBP_LB & (1 << (15-n)))RHSofDP +=  15259; break;
 3741               		.loc 3 156 0 is_stmt 1 discriminator 2
 3742 10a0 4F5F      		subi r20,-1
 3743 10a2 5F4F      		sbci r21,-1
 3744               	.LVL248:
 3745 10a4 4031      		cpi r20,16
 3746 10a6 5105      		cpc r21,__zero_reg__
 3747 10a8 01F0      		breq .+2
 3748 10aa 00C0      		rjmp .L304
 3749               	.LBE70:
 172:../../../Resources_V12/Subroutines/Arithmetic.c **** case 15: if (RHSofBP_LB & (1 << (15-n)))RHSofDP += 0; break;}}	
 173:../../../Resources_V12/Subroutines/Arithmetic.c **** return RHSofDP;}
 3750               		.loc 3 173 0
 3751 10ac BC01      		movw r22,r24
 3752 10ae CD01      		movw r24,r26
 3753               	/* epilogue start */
 3754 10b0 E696      		adiw r28,54
 3755 10b2 0FB6      		in __tmp_reg__,__SREG__
 3756 10b4 F894      		cli
 3757 10b6 DEBF      		out __SP_H__,r29
 3758 10b8 0FBE      		out __SREG__,__tmp_reg__
 3759 10ba CDBF      		out __SP_L__,r28
 3760 10bc DF91      		pop r29
 3761 10be CF91      		pop r28
 3762 10c0 1F91      		pop r17
 3763 10c2 0F91      		pop r16
 3764 10c4 FF90      		pop r15
 3765 10c6 EF90      		pop r14
 3766 10c8 DF90      		pop r13
 3767 10ca CF90      		pop r12
 3768 10cc BF90      		pop r11
 3769 10ce AF90      		pop r10
 3770 10d0 9F90      		pop r9
 3771 10d2 8F90      		pop r8
 3772 10d4 7F90      		pop r7
 3773 10d6 6F90      		pop r6
 3774 10d8 5F90      		pop r5
 3775 10da 4F90      		pop r4
 3776 10dc 3F90      		pop r3
 3777 10de 2F90      		pop r2
 3778 10e0 0895      		ret
 3779               		.cfi_endproc
 3780               	.LFE57:
 3782               	.global	Hex_from_KBD
 3784               	Hex_from_KBD:
 3785               	.LFB59:
 3786               		.file 4 "../../../Resources_V12/Subroutines/Integers_to_from_PC.c"
   1:../../../Resources_V12/Subroutines/Integers_to_from_PC.c **** 
   2:../../../Resources_V12/Subroutines/Integers_to_from_PC.c **** long Num_from_KBD(char*);
   3:../../../Resources_V12/Subroutines/Integers_to_from_PC.c **** long Hex_from_KBD(void);											//?????CHANGED was char * to digits[]
   4:../../../Resources_V12/Subroutines/Integers_to_from_PC.c **** long Num_from_KBD_with_echo(char*);
   5:../../../Resources_V12/Subroutines/Integers_to_from_PC.c **** void Binary_to_PC(long);						//was sendBinary()
   6:../../../Resources_V12/Subroutines/Integers_to_from_PC.c **** char binary_char_from_KBD(void);
   7:../../../Resources_V12/Subroutines/Integers_to_from_PC.c **** 
   8:../../../Resources_V12/Subroutines/Integers_to_from_PC.c **** char decimal_digit (char);
   9:../../../Resources_V12/Subroutines/Integers_to_from_PC.c **** char hex_digit (char);
  10:../../../Resources_V12/Subroutines/Integers_to_from_PC.c **** long I2C_displayToNum(void);	
  11:../../../Resources_V12/Subroutines/Integers_to_from_PC.c **** void I2C_Tx_8_byte_array(char*);
  12:../../../Resources_V12/Subroutines/Integers_to_from_PC.c **** 
  13:../../../Resources_V12/Subroutines/Integers_to_from_PC.c **** 
  14:../../../Resources_V12/Subroutines/Integers_to_from_PC.c **** 
  15:../../../Resources_V12/Subroutines/Integers_to_from_PC.c **** /*******************************************************************************/
  16:../../../Resources_V12/Subroutines/Integers_to_from_PC.c **** long Num_from_KBD(char digits[]){
  17:../../../Resources_V12/Subroutines/Integers_to_from_PC.c **** char keypress;
  18:../../../Resources_V12/Subroutines/Integers_to_from_PC.c **** for(int n = 0; n<=7; n++) digits[n] = 0; 
  19:../../../Resources_V12/Subroutines/Integers_to_from_PC.c **** 
  20:../../../Resources_V12/Subroutines/Integers_to_from_PC.c **** do
  21:../../../Resources_V12/Subroutines/Integers_to_from_PC.c **** {keypress =  waitforkeypress();} 
  22:../../../Resources_V12/Subroutines/Integers_to_from_PC.c **** while ((!(decimal_digit(keypress)))&& (keypress != '-'));						//(non_decimal_char(keypress));  //N
  23:../../../Resources_V12/Subroutines/Integers_to_from_PC.c **** digits[0] = keypress;
  24:../../../Resources_V12/Subroutines/Integers_to_from_PC.c **** I2C_Tx_8_byte_array(digits);
  25:../../../Resources_V12/Subroutines/Integers_to_from_PC.c **** 
  26:../../../Resources_V12/Subroutines/Integers_to_from_PC.c **** while(1){
  27:../../../Resources_V12/Subroutines/Integers_to_from_PC.c **** if ((keypress = wait_for_return_key())  =='\r')break;
  28:../../../Resources_V12/Subroutines/Integers_to_from_PC.c **** if (decimal_digit (keypress))						//012345678or9	:Builds up the number one keypress at a time
  29:../../../Resources_V12/Subroutines/Integers_to_from_PC.c **** {for(int n = 7; n>=1; n--)
  30:../../../Resources_V12/Subroutines/Integers_to_from_PC.c **** digits[n] = digits[n-1];							//Shifts display left for each keypress
  31:../../../Resources_V12/Subroutines/Integers_to_from_PC.c **** digits[0] = keypress;
  32:../../../Resources_V12/Subroutines/Integers_to_from_PC.c **** I2C_Tx_8_byte_array(digits);}}
  33:../../../Resources_V12/Subroutines/Integers_to_from_PC.c **** 						
  34:../../../Resources_V12/Subroutines/Integers_to_from_PC.c **** return I2C_displayToNum();}
  35:../../../Resources_V12/Subroutines/Integers_to_from_PC.c **** 
  36:../../../Resources_V12/Subroutines/Integers_to_from_PC.c **** 
  37:../../../Resources_V12/Subroutines/Integers_to_from_PC.c **** /*******************************************************************************/
  38:../../../Resources_V12/Subroutines/Integers_to_from_PC.c **** long Hex_from_KBD(void){
 3787               		.loc 4 38 0
 3788               		.cfi_startproc
 3789 10e2 CF92      		push r12
 3790               	.LCFI127:
 3791               		.cfi_def_cfa_offset 3
 3792               		.cfi_offset 12, -2
 3793 10e4 DF92      		push r13
 3794               	.LCFI128:
 3795               		.cfi_def_cfa_offset 4
 3796               		.cfi_offset 13, -3
 3797 10e6 EF92      		push r14
 3798               	.LCFI129:
 3799               		.cfi_def_cfa_offset 5
 3800               		.cfi_offset 14, -4
 3801 10e8 FF92      		push r15
 3802               	.LCFI130:
 3803               		.cfi_def_cfa_offset 6
 3804               		.cfi_offset 15, -5
 3805 10ea CF93      		push r28
 3806               	.LCFI131:
 3807               		.cfi_def_cfa_offset 7
 3808               		.cfi_offset 28, -6
 3809 10ec DF93      		push r29
 3810               	.LCFI132:
 3811               		.cfi_def_cfa_offset 8
 3812               		.cfi_offset 29, -7
 3813               	/* prologue: function */
 3814               	/* frame size = 0 */
 3815               	/* stack size = 6 */
 3816               	.L__stack_usage = 6
 3817               	.L402:
  39:../../../Resources_V12/Subroutines/Integers_to_from_PC.c **** char keypress, sign = '+';
  40:../../../Resources_V12/Subroutines/Integers_to_from_PC.c **** long number;
  41:../../../Resources_V12/Subroutines/Integers_to_from_PC.c **** 
  42:../../../Resources_V12/Subroutines/Integers_to_from_PC.c **** do
  43:../../../Resources_V12/Subroutines/Integers_to_from_PC.c **** {keypress =  waitforkeypress();} 
 3818               		.loc 4 43 0 discriminator 2
 3819 10ee 0E94 0000 		call waitforkeypress
 3820               	.LVL249:
 3821 10f2 C82F      		mov r28,r24
 3822               	.LVL250:
  44:../../../Resources_V12/Subroutines/Integers_to_from_PC.c **** while ((!(hex_digit(keypress)))&& (keypress != '-'));//(non_hex_char(keypress));
 3823               		.loc 4 44 0 discriminator 2
 3824 10f4 0E94 0000 		call hex_digit
 3825               	.LVL251:
 3826 10f8 8111      		cpse r24,__zero_reg__
 3827 10fa 00C0      		rjmp .L401
 3828               		.loc 4 44 0 is_stmt 0 discriminator 1
 3829 10fc CD32      		cpi r28,lo8(45)
 3830 10fe 01F4      		brne .L402
 3831               	.L401:
  45:../../../Resources_V12/Subroutines/Integers_to_from_PC.c **** 
  46:../../../Resources_V12/Subroutines/Integers_to_from_PC.c **** newline(); Char_to_PC(keypress);
 3832               		.loc 4 46 0 is_stmt 1
 3833 1100 0E94 0000 		call newline
 3834               	.LVL252:
 3835 1104 8C2F      		mov r24,r28
 3836 1106 0E94 0000 		call Char_to_PC
 3837               	.LVL253:
  47:../../../Resources_V12/Subroutines/Integers_to_from_PC.c **** 
  48:../../../Resources_V12/Subroutines/Integers_to_from_PC.c **** if(keypress == '-') {sign = '-'; number = 0;}
 3838               		.loc 4 48 0
 3839 110a CD32      		cpi r28,lo8(45)
 3840 110c 01F0      		breq .L410
  49:../../../Resources_V12/Subroutines/Integers_to_from_PC.c **** 
  50:../../../Resources_V12/Subroutines/Integers_to_from_PC.c **** else {keypress -= '0';
 3841               		.loc 4 50 0
 3842 110e 80ED      		ldi r24,lo8(-48)
 3843 1110 8C0F      		add r24,r28
 3844               	.LVL254:
  51:../../../Resources_V12/Subroutines/Integers_to_from_PC.c **** if (keypress > 9)keypress -= 7;
 3845               		.loc 4 51 0
 3846 1112 8A30      		cpi r24,lo8(10)
 3847 1114 00F0      		brlo .L404
 3848               		.loc 4 51 0 is_stmt 0 discriminator 1
 3849 1116 89EC      		ldi r24,lo8(-55)
 3850               	.LVL255:
 3851 1118 8C0F      		add r24,r28
 3852               	.LVL256:
 3853               	.L404:
  52:../../../Resources_V12/Subroutines/Integers_to_from_PC.c **** number =  keypress;}
 3854               		.loc 4 52 0 is_stmt 1
 3855 111a C82E      		mov r12,r24
 3856 111c D12C      		mov r13,__zero_reg__
 3857 111e E12C      		mov r14,__zero_reg__
 3858 1120 F12C      		mov r15,__zero_reg__
 3859               	.LVL257:
  39:../../../Resources_V12/Subroutines/Integers_to_from_PC.c **** long number;
 3860               		.loc 4 39 0
 3861 1122 DBE2      		ldi r29,lo8(43)
 3862 1124 00C0      		rjmp .L406
 3863               	.LVL258:
 3864               	.L410:
  48:../../../Resources_V12/Subroutines/Integers_to_from_PC.c **** 
 3865               		.loc 4 48 0
 3866 1126 C12C      		mov r12,__zero_reg__
 3867 1128 D12C      		mov r13,__zero_reg__
 3868 112a 7601      		movw r14,r12
 3869 112c DDE2      		ldi r29,lo8(45)
 3870               	.LVL259:
 3871               	.L406:
  53:../../../Resources_V12/Subroutines/Integers_to_from_PC.c **** 
  54:../../../Resources_V12/Subroutines/Integers_to_from_PC.c **** while(1){
  55:../../../Resources_V12/Subroutines/Integers_to_from_PC.c **** if ((keypress = wait_for_return_key())  =='\r')break;
 3872               		.loc 4 55 0
 3873 112e 0E94 0000 		call wait_for_return_key
 3874               	.LVL260:
 3875 1132 C82F      		mov r28,r24
 3876               	.LVL261:
 3877 1134 8D30      		cpi r24,lo8(13)
 3878 1136 01F0      		breq .L405
  56:../../../Resources_V12/Subroutines/Integers_to_from_PC.c **** if (hex_digit (keypress))	
 3879               		.loc 4 56 0
 3880 1138 0E94 0000 		call hex_digit
 3881               	.LVL262:
 3882 113c 8823      		tst r24
 3883 113e 01F0      		breq .L406
  57:../../../Resources_V12/Subroutines/Integers_to_from_PC.c **** {Char_to_PC(keypress);
 3884               		.loc 4 57 0
 3885 1140 8C2F      		mov r24,r28
 3886 1142 0E94 0000 		call Char_to_PC
 3887               	.LVL263:
  58:../../../Resources_V12/Subroutines/Integers_to_from_PC.c **** keypress -= '0';
 3888               		.loc 4 58 0
 3889 1146 80ED      		ldi r24,lo8(-48)
 3890 1148 8C0F      		add r24,r28
 3891               	.LVL264:
  59:../../../Resources_V12/Subroutines/Integers_to_from_PC.c **** if (keypress > 9)keypress -= 7;
 3892               		.loc 4 59 0
 3893 114a 8A30      		cpi r24,lo8(10)
 3894 114c 00F0      		brlo .L407
 3895               		.loc 4 59 0 is_stmt 0 discriminator 1
 3896 114e 89EC      		ldi r24,lo8(-55)
 3897               	.LVL265:
 3898 1150 8C0F      		add r24,r28
 3899               	.LVL266:
 3900               	.L407:
  60:../../../Resources_V12/Subroutines/Integers_to_from_PC.c **** 
  61:../../../Resources_V12/Subroutines/Integers_to_from_PC.c **** number = number * 0x10 + keypress;}}
 3901               		.loc 4 61 0 is_stmt 1
 3902 1152 94E0      		ldi r25,4
 3903               		1:
 3904 1154 CC0C      		lsl r12
 3905 1156 DD1C      		rol r13
 3906 1158 EE1C      		rol r14
 3907 115a FF1C      		rol r15
 3908 115c 9A95      		dec r25
 3909 115e 01F4      		brne 1b
 3910               	.LVL267:
 3911 1160 C80E      		add r12,r24
 3912 1162 D11C      		adc r13,__zero_reg__
 3913 1164 E11C      		adc r14,__zero_reg__
 3914 1166 F11C      		adc r15,__zero_reg__
 3915               	.LVL268:
 3916 1168 00C0      		rjmp .L406
 3917               	.L405:
  62:../../../Resources_V12/Subroutines/Integers_to_from_PC.c **** 
  63:../../../Resources_V12/Subroutines/Integers_to_from_PC.c **** if(sign == '-')number*= -1;					
 3918               		.loc 4 63 0
 3919 116a DD32      		cpi r29,lo8(45)
 3920 116c 01F4      		brne .L409
 3921               		.loc 4 63 0 is_stmt 0 discriminator 1
 3922 116e F094      		com r15
 3923 1170 E094      		com r14
 3924 1172 D094      		com r13
 3925 1174 C094      		com r12
 3926 1176 C11C      		adc r12,__zero_reg__
 3927 1178 D11C      		adc r13,__zero_reg__
 3928 117a E11C      		adc r14,__zero_reg__
 3929 117c F11C      		adc r15,__zero_reg__
 3930               	.LVL269:
 3931               	.L409:
  64:../../../Resources_V12/Subroutines/Integers_to_from_PC.c **** return number;}
 3932               		.loc 4 64 0 is_stmt 1
 3933 117e C701      		movw r24,r14
 3934 1180 B601      		movw r22,r12
 3935               	/* epilogue start */
 3936 1182 DF91      		pop r29
 3937               	.LVL270:
 3938 1184 CF91      		pop r28
 3939 1186 FF90      		pop r15
 3940 1188 EF90      		pop r14
 3941 118a DF90      		pop r13
 3942 118c CF90      		pop r12
 3943               	.LVL271:
 3944 118e 0895      		ret
 3945               		.cfi_endproc
 3946               	.LFE59:
 3948               	.global	Num_from_KBD_with_echo
 3950               	Num_from_KBD_with_echo:
 3951               	.LFB60:
  65:../../../Resources_V12/Subroutines/Integers_to_from_PC.c **** 
  66:../../../Resources_V12/Subroutines/Integers_to_from_PC.c **** 
  67:../../../Resources_V12/Subroutines/Integers_to_from_PC.c **** 
  68:../../../Resources_V12/Subroutines/Integers_to_from_PC.c **** /*******************************************************************************/
  69:../../../Resources_V12/Subroutines/Integers_to_from_PC.c **** long Num_from_KBD_with_echo(char digits[]){
 3952               		.loc 4 69 0
 3953               		.cfi_startproc
 3954               	.LVL272:
 3955 1190 CF92      		push r12
 3956               	.LCFI133:
 3957               		.cfi_def_cfa_offset 3
 3958               		.cfi_offset 12, -2
 3959 1192 DF92      		push r13
 3960               	.LCFI134:
 3961               		.cfi_def_cfa_offset 4
 3962               		.cfi_offset 13, -3
 3963 1194 EF92      		push r14
 3964               	.LCFI135:
 3965               		.cfi_def_cfa_offset 5
 3966               		.cfi_offset 14, -4
 3967 1196 FF92      		push r15
 3968               	.LCFI136:
 3969               		.cfi_def_cfa_offset 6
 3970               		.cfi_offset 15, -5
 3971 1198 CF93      		push r28
 3972               	.LCFI137:
 3973               		.cfi_def_cfa_offset 7
 3974               		.cfi_offset 28, -6
 3975 119a DF93      		push r29
 3976               	.LCFI138:
 3977               		.cfi_def_cfa_offset 8
 3978               		.cfi_offset 29, -7
 3979               	/* prologue: function */
 3980               	/* frame size = 0 */
 3981               	/* stack size = 6 */
 3982               	.L__stack_usage = 6
 3983               	.LVL273:
 3984 119c 9C01      		movw r18,r24
 3985 119e 285F      		subi r18,-8
 3986 11a0 3F4F      		sbci r19,-1
 3987               	.LVL274:
 3988               	.L415:
 3989               	.LBB71:
  70:../../../Resources_V12/Subroutines/Integers_to_from_PC.c **** char keypress, sign = '+';
  71:../../../Resources_V12/Subroutines/Integers_to_from_PC.c **** long number;
  72:../../../Resources_V12/Subroutines/Integers_to_from_PC.c **** for(int n = 0; n<=7; n++) digits[n] = 0; 
 3990               		.loc 4 72 0 discriminator 3
 3991 11a2 FC01      		movw r30,r24
 3992 11a4 1192      		st Z+,__zero_reg__
 3993 11a6 CF01      		movw r24,r30
 3994               	.LVL275:
 3995 11a8 E217      		cp r30,r18
 3996 11aa F307      		cpc r31,r19
 3997 11ac 01F4      		brne .L415
 3998               	.LVL276:
 3999               	.L427:
 4000               	.LBE71:
  73:../../../Resources_V12/Subroutines/Integers_to_from_PC.c **** 
  74:../../../Resources_V12/Subroutines/Integers_to_from_PC.c **** do
  75:../../../Resources_V12/Subroutines/Integers_to_from_PC.c **** {keypress =  waitforkeypress();} 
 4001               		.loc 4 75 0 discriminator 2
 4002 11ae 0E94 0000 		call waitforkeypress
 4003               	.LVL277:
 4004 11b2 C82F      		mov r28,r24
 4005               	.LVL278:
 4006               	.LBB72:
 4007               	.LBB73:
 134:../../../Resources_V12/Subroutines/Basic_PC_comms.c **** else return 1;}
 4008               		.loc 2 134 0 discriminator 2
 4009 11b4 D0ED      		ldi r29,lo8(-48)
 4010 11b6 D80F      		add r29,r24
 4011 11b8 DA30      		cpi r29,lo8(10)
 4012 11ba 00F4      		brsh .L416
 4013               	.LVL279:
 4014               	.L423:
 4015               	.LBE73:
 4016               	.LBE72:
  76:../../../Resources_V12/Subroutines/Integers_to_from_PC.c **** while((!(decimal_digit(keypress)))&& (keypress != '-'));	// (non_hex_char(keypress)); 
  77:../../../Resources_V12/Subroutines/Integers_to_from_PC.c **** 
  78:../../../Resources_V12/Subroutines/Integers_to_from_PC.c **** newline(); Char_to_PC(keypress);
 4017               		.loc 4 78 0
 4018 11bc 0E94 0000 		call newline
 4019               	.LVL280:
 4020 11c0 8C2F      		mov r24,r28
 4021 11c2 0E94 0000 		call Char_to_PC
 4022               	.LVL281:
  79:../../../Resources_V12/Subroutines/Integers_to_from_PC.c **** 
  80:../../../Resources_V12/Subroutines/Integers_to_from_PC.c **** if(keypress == '-') {sign = '-'; number = 0;}
 4023               		.loc 4 80 0
 4024 11c6 CD32      		cpi r28,lo8(45)
 4025 11c8 01F0      		breq .L425
 4026               	.LVL282:
  81:../../../Resources_V12/Subroutines/Integers_to_from_PC.c **** 
  82:../../../Resources_V12/Subroutines/Integers_to_from_PC.c **** else {
  83:../../../Resources_V12/Subroutines/Integers_to_from_PC.c **** keypress -= '0';
  84:../../../Resources_V12/Subroutines/Integers_to_from_PC.c **** number =  keypress;}
 4027               		.loc 4 84 0
 4028 11ca CD2E      		mov r12,r29
 4029 11cc D12C      		mov r13,__zero_reg__
 4030 11ce E12C      		mov r14,__zero_reg__
 4031 11d0 F12C      		mov r15,__zero_reg__
 4032               	.LVL283:
  70:../../../Resources_V12/Subroutines/Integers_to_from_PC.c **** long number;
 4033               		.loc 4 70 0
 4034 11d2 DBE2      		ldi r29,lo8(43)
 4035               	.LVL284:
 4036 11d4 00C0      		rjmp .L419
 4037               	.LVL285:
 4038               	.L425:
  80:../../../Resources_V12/Subroutines/Integers_to_from_PC.c **** 
 4039               		.loc 4 80 0
 4040 11d6 C12C      		mov r12,__zero_reg__
 4041 11d8 D12C      		mov r13,__zero_reg__
 4042 11da 7601      		movw r14,r12
 4043 11dc DDE2      		ldi r29,lo8(45)
 4044               	.LVL286:
 4045               	.L419:
  85:../../../Resources_V12/Subroutines/Integers_to_from_PC.c **** 
  86:../../../Resources_V12/Subroutines/Integers_to_from_PC.c **** while(1){
  87:../../../Resources_V12/Subroutines/Integers_to_from_PC.c **** if ((keypress = wait_for_return_key())  =='\r')break;
 4046               		.loc 4 87 0
 4047 11de 0E94 0000 		call wait_for_return_key
 4048               	.LVL287:
 4049 11e2 8D30      		cpi r24,lo8(13)
 4050 11e4 01F0      		breq .L418
 4051               	.LVL288:
 4052               	.LBB74:
 4053               	.LBB75:
 134:../../../Resources_V12/Subroutines/Basic_PC_comms.c **** else return 1;}
 4054               		.loc 2 134 0
 4055 11e6 C0ED      		ldi r28,lo8(-48)
 4056 11e8 C80F      		add r28,r24
 4057 11ea CA30      		cpi r28,lo8(10)
 4058 11ec 00F4      		brsh .L419
 4059               	.LVL289:
 4060               	.LBE75:
 4061               	.LBE74:
  88:../../../Resources_V12/Subroutines/Integers_to_from_PC.c **** if (decimal_digit (keypress))		
  89:../../../Resources_V12/Subroutines/Integers_to_from_PC.c **** {Char_to_PC(keypress);
 4062               		.loc 4 89 0
 4063 11ee 0E94 0000 		call Char_to_PC
 4064               	.LVL290:
  90:../../../Resources_V12/Subroutines/Integers_to_from_PC.c **** keypress -= '0';
  91:../../../Resources_V12/Subroutines/Integers_to_from_PC.c **** 
  92:../../../Resources_V12/Subroutines/Integers_to_from_PC.c **** number = number * 10 + keypress;}}
 4065               		.loc 4 92 0
 4066 11f2 AAE0      		ldi r26,lo8(10)
 4067 11f4 B0E0      		ldi r27,0
 4068 11f6 A701      		movw r20,r14
 4069 11f8 9601      		movw r18,r12
 4070 11fa 0E94 0000 		call __muluhisi3
 4071 11fe 6B01      		movw r12,r22
 4072 1200 7C01      		movw r14,r24
 4073               	.LVL291:
 4074 1202 CC0E      		add r12,r28
 4075 1204 D11C      		adc r13,__zero_reg__
 4076 1206 E11C      		adc r14,__zero_reg__
 4077 1208 F11C      		adc r15,__zero_reg__
 4078               	.LVL292:
 4079 120a 00C0      		rjmp .L419
 4080               	.LVL293:
 4081               	.L418:
  93:../../../Resources_V12/Subroutines/Integers_to_from_PC.c **** 
  94:../../../Resources_V12/Subroutines/Integers_to_from_PC.c **** if(sign == '-')number*= -1;					
 4082               		.loc 4 94 0
 4083 120c DD32      		cpi r29,lo8(45)
 4084 120e 01F4      		brne .L426
 4085               		.loc 4 94 0 is_stmt 0 discriminator 1
 4086 1210 F094      		com r15
 4087 1212 E094      		com r14
 4088 1214 D094      		com r13
 4089 1216 C094      		com r12
 4090 1218 C11C      		adc r12,__zero_reg__
 4091 121a D11C      		adc r13,__zero_reg__
 4092 121c E11C      		adc r14,__zero_reg__
 4093 121e F11C      		adc r15,__zero_reg__
 4094               	.LVL294:
  95:../../../Resources_V12/Subroutines/Integers_to_from_PC.c **** return number;}
 4095               		.loc 4 95 0 is_stmt 1 discriminator 1
 4096 1220 00C0      		rjmp .L426
 4097               	.LVL295:
 4098               	.L416:
  76:../../../Resources_V12/Subroutines/Integers_to_from_PC.c **** 
 4099               		.loc 4 76 0
 4100 1222 8D32      		cpi r24,lo8(45)
 4101 1224 01F4      		brne .L427
 4102 1226 00C0      		rjmp .L423
 4103               	.LVL296:
 4104               	.L426:
 4105               		.loc 4 95 0
 4106 1228 C701      		movw r24,r14
 4107 122a B601      		movw r22,r12
 4108               	/* epilogue start */
 4109 122c DF91      		pop r29
 4110               	.LVL297:
 4111 122e CF91      		pop r28
 4112 1230 FF90      		pop r15
 4113 1232 EF90      		pop r14
 4114 1234 DF90      		pop r13
 4115 1236 CF90      		pop r12
 4116               	.LVL298:
 4117 1238 0895      		ret
 4118               		.cfi_endproc
 4119               	.LFE60:
 4121               	.global	Binary_to_PC
 4123               	Binary_to_PC:
 4124               	.LFB61:
  96:../../../Resources_V12/Subroutines/Integers_to_from_PC.c **** 
  97:../../../Resources_V12/Subroutines/Integers_to_from_PC.c **** 
  98:../../../Resources_V12/Subroutines/Integers_to_from_PC.c **** 
  99:../../../Resources_V12/Subroutines/Integers_to_from_PC.c **** /*******************************************************************************/
 100:../../../Resources_V12/Subroutines/Integers_to_from_PC.c **** void Binary_to_PC(long num){
 4125               		.loc 4 100 0
 4126               		.cfi_startproc
 4127               	.LVL299:
 4128 123a 4F92      		push r4
 4129               	.LCFI139:
 4130               		.cfi_def_cfa_offset 3
 4131               		.cfi_offset 4, -2
 4132 123c 5F92      		push r5
 4133               	.LCFI140:
 4134               		.cfi_def_cfa_offset 4
 4135               		.cfi_offset 5, -3
 4136 123e 6F92      		push r6
 4137               	.LCFI141:
 4138               		.cfi_def_cfa_offset 5
 4139               		.cfi_offset 6, -4
 4140 1240 7F92      		push r7
 4141               	.LCFI142:
 4142               		.cfi_def_cfa_offset 6
 4143               		.cfi_offset 7, -5
 4144 1242 AF92      		push r10
 4145               	.LCFI143:
 4146               		.cfi_def_cfa_offset 7
 4147               		.cfi_offset 10, -6
 4148 1244 BF92      		push r11
 4149               	.LCFI144:
 4150               		.cfi_def_cfa_offset 8
 4151               		.cfi_offset 11, -7
 4152 1246 CF92      		push r12
 4153               	.LCFI145:
 4154               		.cfi_def_cfa_offset 9
 4155               		.cfi_offset 12, -8
 4156 1248 DF92      		push r13
 4157               	.LCFI146:
 4158               		.cfi_def_cfa_offset 10
 4159               		.cfi_offset 13, -9
 4160 124a EF92      		push r14
 4161               	.LCFI147:
 4162               		.cfi_def_cfa_offset 11
 4163               		.cfi_offset 14, -10
 4164 124c FF92      		push r15
 4165               	.LCFI148:
 4166               		.cfi_def_cfa_offset 12
 4167               		.cfi_offset 15, -11
 4168 124e 0F93      		push r16
 4169               	.LCFI149:
 4170               		.cfi_def_cfa_offset 13
 4171               		.cfi_offset 16, -12
 4172 1250 1F93      		push r17
 4173               	.LCFI150:
 4174               		.cfi_def_cfa_offset 14
 4175               		.cfi_offset 17, -13
 4176 1252 CF93      		push r28
 4177               	.LCFI151:
 4178               		.cfi_def_cfa_offset 15
 4179               		.cfi_offset 28, -14
 4180               	/* prologue: function */
 4181               	/* frame size = 0 */
 4182               	/* stack size = 13 */
 4183               	.L__stack_usage = 13
 4184 1254 6B01      		movw r12,r22
 4185 1256 7C01      		movw r14,r24
 4186               	.LVL300:
 4187               	.LBB76:
 101:../../../Resources_V12/Subroutines/Integers_to_from_PC.c **** char counter = 0; unsigned int x;
 102:../../../Resources_V12/Subroutines/Integers_to_from_PC.c **** for (unsigned int m = 16; m; m--)
 103:../../../Resources_V12/Subroutines/Integers_to_from_PC.c **** {if ((num>>16) & (1 << (m-1))) Char_to_PC ('1'); else Char_to_PC('0'); 
 4188               		.loc 4 103 0
 4189 1258 2701      		movw r4,r14
 4190 125a 7724      		clr r7
 4191 125c 57FC      		sbrc r5,7
 4192 125e 7094      		com r7
 4193 1260 672C      		mov r6,r7
 102:../../../Resources_V12/Subroutines/Integers_to_from_PC.c **** {if ((num>>16) & (1 << (m-1))) Char_to_PC ('1'); else Char_to_PC('0'); 
 4194               		.loc 4 102 0
 4195 1262 00E1      		ldi r16,lo8(16)
 4196 1264 10E0      		ldi r17,0
 4197               	.LBE76:
 101:../../../Resources_V12/Subroutines/Integers_to_from_PC.c **** char counter = 0; unsigned int x;
 4198               		.loc 4 101 0
 4199 1266 C0E0      		ldi r28,0
 4200               	.LBB77:
 4201               		.loc 4 103 0
 4202 1268 AA24      		clr r10
 4203 126a A394      		inc r10
 4204 126c B12C      		mov r11,__zero_reg__
 4205               	.LVL301:
 4206               	.L436:
 4207 126e 0150      		subi r16,1
 4208 1270 1109      		sbc r17,__zero_reg__
 4209               	.LVL302:
 4210 1272 C501      		movw r24,r10
 4211 1274 002E      		mov r0,r16
 4212 1276 00C0      		rjmp 2f
 4213               		1:
 4214 1278 880F      		lsl r24
 4215 127a 991F      		rol r25
 4216               		2:
 4217 127c 0A94      		dec r0
 4218 127e 02F4      		brpl 1b
 4219 1280 092E      		mov __tmp_reg__,r25
 4220 1282 000C      		lsl r0
 4221 1284 AA0B      		sbc r26,r26
 4222 1286 BB0B      		sbc r27,r27
 4223 1288 8421      		and r24,r4
 4224 128a 9521      		and r25,r5
 4225 128c A621      		and r26,r6
 4226 128e B721      		and r27,r7
 4227 1290 892B      		or r24,r25
 4228 1292 8A2B      		or r24,r26
 4229 1294 8B2B      		or r24,r27
 4230 1296 01F0      		breq .L433
 4231               		.loc 4 103 0 is_stmt 0 discriminator 1
 4232 1298 81E3      		ldi r24,lo8(49)
 4233 129a 00C0      		rjmp .L443
 4234               	.L433:
 4235               		.loc 4 103 0 discriminator 2
 4236 129c 80E3      		ldi r24,lo8(48)
 4237               	.L443:
 4238 129e 0E94 0000 		call Char_to_PC
 4239               	.LVL303:
 104:../../../Resources_V12/Subroutines/Integers_to_from_PC.c **** counter++; if (!(counter%4))Char_to_PC(' ');}
 4240               		.loc 4 104 0 is_stmt 1 discriminator 2
 4241 12a2 CF5F      		subi r28,lo8(-(1))
 4242               	.LVL304:
 4243 12a4 8C2F      		mov r24,r28
 4244 12a6 8370      		andi r24,lo8(3)
 4245 12a8 01F4      		brne .L435
 4246               		.loc 4 104 0 is_stmt 0 discriminator 1
 4247 12aa 80E2      		ldi r24,lo8(32)
 4248 12ac 0E94 0000 		call Char_to_PC
 4249               	.LVL305:
 4250               	.L435:
 102:../../../Resources_V12/Subroutines/Integers_to_from_PC.c **** {if ((num>>16) & (1 << (m-1))) Char_to_PC ('1'); else Char_to_PC('0'); 
 4251               		.loc 4 102 0 is_stmt 1 discriminator 1
 4252 12b0 C031      		cpi r28,lo8(16)
 4253 12b2 01F4      		brne .L436
 4254               	.LVL306:
 4255               	.LBE77:
 4256               	.LBB78:
 105:../../../Resources_V12/Subroutines/Integers_to_from_PC.c **** 
 106:../../../Resources_V12/Subroutines/Integers_to_from_PC.c **** x=num;
 107:../../../Resources_V12/Subroutines/Integers_to_from_PC.c **** for (unsigned int m = 16; m; m--)
 4257               		.loc 4 107 0
 4258 12b4 00E1      		ldi r16,lo8(16)
 4259 12b6 10E0      		ldi r17,0
 4260               	.LVL307:
 108:../../../Resources_V12/Subroutines/Integers_to_from_PC.c **** {if (x & (1 << (m-1))) Char_to_PC ('1'); else Char_to_PC('0'); 
 4261               		.loc 4 108 0
 4262 12b8 EE24      		clr r14
 4263 12ba E394      		inc r14
 4264 12bc F12C      		mov r15,__zero_reg__
 4265               	.LVL308:
 4266               	.L440:
 4267 12be 0150      		subi r16,1
 4268 12c0 1109      		sbc r17,__zero_reg__
 4269               	.LVL309:
 4270 12c2 C701      		movw r24,r14
 4271 12c4 002E      		mov r0,r16
 4272 12c6 00C0      		rjmp 2f
 4273               		1:
 4274 12c8 880F      		lsl r24
 4275 12ca 991F      		rol r25
 4276               		2:
 4277 12cc 0A94      		dec r0
 4278 12ce 02F4      		brpl 1b
 4279 12d0 8C21      		and r24,r12
 4280 12d2 9D21      		and r25,r13
 4281 12d4 892B      		or r24,r25
 4282 12d6 01F0      		breq .L437
 4283               		.loc 4 108 0 is_stmt 0 discriminator 1
 4284 12d8 81E3      		ldi r24,lo8(49)
 4285 12da 00C0      		rjmp .L444
 4286               	.L437:
 4287               		.loc 4 108 0 discriminator 2
 4288 12dc 80E3      		ldi r24,lo8(48)
 4289               	.L444:
 4290 12de 0E94 0000 		call Char_to_PC
 4291               	.LVL310:
 109:../../../Resources_V12/Subroutines/Integers_to_from_PC.c **** counter++;if (!(counter%4))Char_to_PC(' ');}}
 4292               		.loc 4 109 0 is_stmt 1 discriminator 2
 4293 12e2 CF5F      		subi r28,lo8(-(1))
 4294               	.LVL311:
 4295 12e4 8C2F      		mov r24,r28
 4296 12e6 8370      		andi r24,lo8(3)
 4297 12e8 01F4      		brne .L439
 4298               		.loc 4 109 0 is_stmt 0 discriminator 1
 4299 12ea 80E2      		ldi r24,lo8(32)
 4300 12ec 0E94 0000 		call Char_to_PC
 4301               	.LVL312:
 4302               	.L439:
 107:../../../Resources_V12/Subroutines/Integers_to_from_PC.c **** {if (x & (1 << (m-1))) Char_to_PC ('1'); else Char_to_PC('0'); 
 4303               		.loc 4 107 0 is_stmt 1 discriminator 1
 4304 12f0 C032      		cpi r28,lo8(32)
 4305 12f2 01F4      		brne .L440
 4306               	/* epilogue start */
 4307               	.LBE78:
 4308               		.loc 4 109 0
 4309 12f4 CF91      		pop r28
 4310               	.LVL313:
 4311 12f6 1F91      		pop r17
 4312 12f8 0F91      		pop r16
 4313               	.LVL314:
 4314 12fa FF90      		pop r15
 4315 12fc EF90      		pop r14
 4316 12fe DF90      		pop r13
 4317 1300 CF90      		pop r12
 4318               	.LVL315:
 4319 1302 BF90      		pop r11
 4320 1304 AF90      		pop r10
 4321 1306 7F90      		pop r7
 4322 1308 6F90      		pop r6
 4323 130a 5F90      		pop r5
 4324 130c 4F90      		pop r4
 4325 130e 0895      		ret
 4326               		.cfi_endproc
 4327               	.LFE61:
 4329               	.global	send_byte_with_Ack
 4331               	send_byte_with_Ack:
 4332               	.LFB65:
 4333               		.file 5 "../../../Resources_V12/I2C_Subroutines/I2C_slave_Rx_Tx.c"
   1:../../../Resources_V12/I2C_Subroutines/I2C_slave_Rx_Tx.c **** 
   2:../../../Resources_V12/I2C_Subroutines/I2C_slave_Rx_Tx.c **** void I2C_Tx_initiate_mode(char);
   3:../../../Resources_V12/I2C_Subroutines/I2C_slave_Rx_Tx.c **** void I2C_Tx(char, char, char*);
   4:../../../Resources_V12/I2C_Subroutines/I2C_slave_Rx_Tx.c **** void send_byte_with_Ack(char);
   5:../../../Resources_V12/I2C_Subroutines/I2C_slave_Rx_Tx.c **** void send_byte_with_Nack(char);
   6:../../../Resources_V12/I2C_Subroutines/I2C_slave_Rx_Tx.c **** char receive_byte_with_Ack(void);
   7:../../../Resources_V12/I2C_Subroutines/I2C_slave_Rx_Tx.c **** char receive_byte_with_Nack(void);
   8:../../../Resources_V12/I2C_Subroutines/I2C_slave_Rx_Tx.c **** void I2C_Rx_RN(unsigned long *, signed char *);		//Real numbers only
   9:../../../Resources_V12/I2C_Subroutines/I2C_slave_Rx_Tx.c **** 
  10:../../../Resources_V12/I2C_Subroutines/I2C_slave_Rx_Tx.c **** 
  11:../../../Resources_V12/I2C_Subroutines/I2C_slave_Rx_Tx.c **** void I2C_Tx_initiate_mode(char mode){
  12:../../../Resources_V12/I2C_Subroutines/I2C_slave_Rx_Tx.c **** char num_bytes = 0;
  13:../../../Resources_V12/I2C_Subroutines/I2C_slave_Rx_Tx.c **** waiting_for_I2C_master;		
  14:../../../Resources_V12/I2C_Subroutines/I2C_slave_Rx_Tx.c **** send_byte_with_Ack(num_bytes);
  15:../../../Resources_V12/I2C_Subroutines/I2C_slave_Rx_Tx.c **** send_byte_with_Nack(mode);
  16:../../../Resources_V12/I2C_Subroutines/I2C_slave_Rx_Tx.c **** TWCR = (1 << TWINT);}
  17:../../../Resources_V12/I2C_Subroutines/I2C_slave_Rx_Tx.c **** 
  18:../../../Resources_V12/I2C_Subroutines/I2C_slave_Rx_Tx.c **** 
  19:../../../Resources_V12/I2C_Subroutines/I2C_slave_Rx_Tx.c **** 
  20:../../../Resources_V12/I2C_Subroutines/I2C_slave_Rx_Tx.c **** /***********************************************************/
  21:../../../Resources_V12/I2C_Subroutines/I2C_slave_Rx_Tx.c **** void I2C_Tx(char num_bytes, char mode, char s[]){
  22:../../../Resources_V12/I2C_Subroutines/I2C_slave_Rx_Tx.c **** waiting_for_I2C_master;
  23:../../../Resources_V12/I2C_Subroutines/I2C_slave_Rx_Tx.c **** send_byte_with_Ack(num_bytes);
  24:../../../Resources_V12/I2C_Subroutines/I2C_slave_Rx_Tx.c **** send_byte_with_Ack(mode);
  25:../../../Resources_V12/I2C_Subroutines/I2C_slave_Rx_Tx.c **** for (int m = 0;  m < num_bytes; m++){
  26:../../../Resources_V12/I2C_Subroutines/I2C_slave_Rx_Tx.c **** if (m==num_bytes-1){send_byte_with_Nack(s[m]);}
  27:../../../Resources_V12/I2C_Subroutines/I2C_slave_Rx_Tx.c **** else {send_byte_with_Ack(s[m]);}}
  28:../../../Resources_V12/I2C_Subroutines/I2C_slave_Rx_Tx.c **** TWCR = (1 << TWINT);}										//Clear interrupt and close I2C slave
  29:../../../Resources_V12/I2C_Subroutines/I2C_slave_Rx_Tx.c **** 
  30:../../../Resources_V12/I2C_Subroutines/I2C_slave_Rx_Tx.c **** 
  31:../../../Resources_V12/I2C_Subroutines/I2C_slave_Rx_Tx.c **** /***********************************************************/
  32:../../../Resources_V12/I2C_Subroutines/I2C_slave_Rx_Tx.c **** void send_byte_with_Ack(char byte){
 4334               		.loc 5 32 0
 4335               		.cfi_startproc
 4336               	.LVL316:
 4337               	/* prologue: function */
 4338               	/* frame size = 0 */
 4339               	/* stack size = 0 */
 4340               	.L__stack_usage = 0
  33:../../../Resources_V12/I2C_Subroutines/I2C_slave_Rx_Tx.c **** TWDR = byte;											//Send payload size: Zero in this case
 4341               		.loc 5 33 0
 4342 1310 8093 BB00 		sts 187,r24
  34:../../../Resources_V12/I2C_Subroutines/I2C_slave_Rx_Tx.c **** TWCR = (1 << TWINT) | (1 << TWEA) | (1 << TWEN);		//clear interrupt and set Enable Acknowledge
 4343               		.loc 5 34 0
 4344 1314 84EC      		ldi r24,lo8(-60)
 4345               	.LVL317:
 4346 1316 8093 BC00 		sts 188,r24
 4347               	.LVL318:
 4348               	.L446:
  35:../../../Resources_V12/I2C_Subroutines/I2C_slave_Rx_Tx.c **** while (!(TWCR & (1 << TWINT)));}
 4349               		.loc 5 35 0 discriminator 1
 4350 131a 8091 BC00 		lds r24,188
 4351 131e 87FF      		sbrs r24,7
 4352 1320 00C0      		rjmp .L446
 4353               	/* epilogue start */
 4354               		.loc 5 35 0 is_stmt 0
 4355 1322 0895      		ret
 4356               		.cfi_endproc
 4357               	.LFE65:
 4359               	.global	send_byte_with_Nack
 4361               	send_byte_with_Nack:
 4362               	.LFB66:
  36:../../../Resources_V12/I2C_Subroutines/I2C_slave_Rx_Tx.c **** 
  37:../../../Resources_V12/I2C_Subroutines/I2C_slave_Rx_Tx.c **** /***********************************************************/
  38:../../../Resources_V12/I2C_Subroutines/I2C_slave_Rx_Tx.c **** void send_byte_with_Nack(char byte){
 4363               		.loc 5 38 0 is_stmt 1
 4364               		.cfi_startproc
 4365               	.LVL319:
 4366               	/* prologue: function */
 4367               	/* frame size = 0 */
 4368               	/* stack size = 0 */
 4369               	.L__stack_usage = 0
  39:../../../Resources_V12/I2C_Subroutines/I2C_slave_Rx_Tx.c **** TWDR = byte;										//Send payload size: Zero in this case
 4370               		.loc 5 39 0
 4371 1324 8093 BB00 		sts 187,r24
  40:../../../Resources_V12/I2C_Subroutines/I2C_slave_Rx_Tx.c **** TWCR = (1 << TWINT) | (1 << TWEN);		//clear interrupt and set Enable Acknowledge
 4372               		.loc 5 40 0
 4373 1328 84E8      		ldi r24,lo8(-124)
 4374               	.LVL320:
 4375 132a 8093 BC00 		sts 188,r24
 4376               	.LVL321:
 4377               	.L449:
  41:../../../Resources_V12/I2C_Subroutines/I2C_slave_Rx_Tx.c **** while (!(TWCR & (1 << TWINT)));}
 4378               		.loc 5 41 0 discriminator 1
 4379 132e 8091 BC00 		lds r24,188
 4380 1332 87FF      		sbrs r24,7
 4381 1334 00C0      		rjmp .L449
 4382               	/* epilogue start */
 4383               		.loc 5 41 0 is_stmt 0
 4384 1336 0895      		ret
 4385               		.cfi_endproc
 4386               	.LFE66:
 4388               	.global	I2C_initiate_10mS_ref
 4390               	I2C_initiate_10mS_ref:
 4391               	.LFB22:
 4392               		.file 6 "../../../Resources_V12/I2C_Subroutines/I2C_subroutines_1.c"
   1:../../../Resources_V12/I2C_Subroutines/I2C_subroutines_1.c **** 
   2:../../../Resources_V12/I2C_Subroutines/I2C_subroutines_1.c **** void I2C_Tx_2_integers(unsigned int, unsigned int);
   3:../../../Resources_V12/I2C_Subroutines/I2C_subroutines_1.c **** void I2C_Tx_any_segment(char, char);
   4:../../../Resources_V12/I2C_Subroutines/I2C_subroutines_1.c **** void I2C_Tx_any_segment_clear_all(void);
   5:../../../Resources_V12/I2C_Subroutines/I2C_subroutines_1.c **** void I2C_Tx_8_byte_array(char*);
   6:../../../Resources_V12/I2C_Subroutines/I2C_subroutines_1.c **** void I2C_Tx_8_byte_array_plus_mode(char, char*);
   7:../../../Resources_V12/I2C_Subroutines/I2C_subroutines_1.c **** void I2C_Tx_BWops(char*);
   8:../../../Resources_V12/I2C_Subroutines/I2C_subroutines_1.c **** void I2C_Tx_OS_timer(char, char*);
   9:../../../Resources_V12/I2C_Subroutines/I2C_subroutines_1.c **** void I2C_Tx_Clock_command(char, char);
  10:../../../Resources_V12/I2C_Subroutines/I2C_subroutines_1.c **** void I2C_Tx_display_char (char, char);
  11:../../../Resources_V12/I2C_Subroutines/I2C_subroutines_1.c **** void I2C_Tx_2_chars(char, char, char);
  12:../../../Resources_V12/I2C_Subroutines/I2C_subroutines_1.c **** void I2C_initiate_10mS_ref(void);
  13:../../../Resources_V12/I2C_Subroutines/I2C_subroutines_1.c **** void I2C_Tx_display(void);
  14:../../../Resources_V12/I2C_Subroutines/I2C_subroutines_1.c **** void I2C_Tx_LED_dimmer(void);
  15:../../../Resources_V12/I2C_Subroutines/I2C_subroutines_1.c **** void I2C_Set_Tx_Rx_speed(char);
  16:../../../Resources_V12/I2C_Subroutines/I2C_subroutines_1.c **** 
  17:../../../Resources_V12/I2C_Subroutines/I2C_subroutines_1.c **** char waitforkeypress(void);
  18:../../../Resources_V12/I2C_Subroutines/I2C_subroutines_1.c **** void String_to_PC(char*);
  19:../../../Resources_V12/I2C_Subroutines/I2C_subroutines_1.c **** void newline(void);
  20:../../../Resources_V12/I2C_Subroutines/I2C_subroutines_1.c **** 
  21:../../../Resources_V12/I2C_Subroutines/I2C_subroutines_1.c **** void I2C_Tx(char, char, char*);
  22:../../../Resources_V12/I2C_Subroutines/I2C_subroutines_1.c **** void send_byte_with_Ack(char);
  23:../../../Resources_V12/I2C_Subroutines/I2C_subroutines_1.c **** void send_byte_with_Nack(char);
  24:../../../Resources_V12/I2C_Subroutines/I2C_subroutines_1.c **** char receive_byte_with_Ack(void);
  25:../../../Resources_V12/I2C_Subroutines/I2C_subroutines_1.c **** char receive_byte_with_Nack(void);
  26:../../../Resources_V12/I2C_Subroutines/I2C_subroutines_1.c **** 
  27:../../../Resources_V12/I2C_Subroutines/I2C_subroutines_1.c **** /************************************************************************/
  28:../../../Resources_V12/I2C_Subroutines/I2C_subroutines_1.c **** void I2C_Tx_2_integers(unsigned int s1, unsigned int s2){			
  29:../../../Resources_V12/I2C_Subroutines/I2C_subroutines_1.c **** char num_bytes=4; char mode = 1; char s[4];
  30:../../../Resources_V12/I2C_Subroutines/I2C_subroutines_1.c **** for (int m = 0;  m < 4; m++){
  31:../../../Resources_V12/I2C_Subroutines/I2C_subroutines_1.c **** switch (m){
  32:../../../Resources_V12/I2C_Subroutines/I2C_subroutines_1.c **** case 0: s[m] = s1; break; 											//Send S1 lower byte
  33:../../../Resources_V12/I2C_Subroutines/I2C_subroutines_1.c **** case 1: s[m] = s1 >> 8; break; 									//Send S1 higher byte									
  34:../../../Resources_V12/I2C_Subroutines/I2C_subroutines_1.c **** case 2: s[m] = s2; 	break;											//Send S1 lower byte
  35:../../../Resources_V12/I2C_Subroutines/I2C_subroutines_1.c **** case 3: s[m] = s2 >> 8; break;}}									//Send S1 higher byte
  36:../../../Resources_V12/I2C_Subroutines/I2C_subroutines_1.c **** I2C_Tx(num_bytes,mode, s);}
  37:../../../Resources_V12/I2C_Subroutines/I2C_subroutines_1.c **** 
  38:../../../Resources_V12/I2C_Subroutines/I2C_subroutines_1.c **** 
  39:../../../Resources_V12/I2C_Subroutines/I2C_subroutines_1.c **** /************************************************************************/
  40:../../../Resources_V12/I2C_Subroutines/I2C_subroutines_1.c **** void I2C_Tx_any_segment(char segment, char digit_num){
  41:../../../Resources_V12/I2C_Subroutines/I2C_subroutines_1.c **** char s[2]; char num_bytes=2; char mode = 3;
  42:../../../Resources_V12/I2C_Subroutines/I2C_subroutines_1.c **** s[0] = segment;
  43:../../../Resources_V12/I2C_Subroutines/I2C_subroutines_1.c **** s[1] = digit_num; 
  44:../../../Resources_V12/I2C_Subroutines/I2C_subroutines_1.c **** I2C_Tx(num_bytes,mode, s);}
  45:../../../Resources_V12/I2C_Subroutines/I2C_subroutines_1.c **** 
  46:../../../Resources_V12/I2C_Subroutines/I2C_subroutines_1.c **** 
  47:../../../Resources_V12/I2C_Subroutines/I2C_subroutines_1.c **** /************************************************************************/
  48:../../../Resources_V12/I2C_Subroutines/I2C_subroutines_1.c **** void I2C_Tx_any_segment_clear_all(void){
  49:../../../Resources_V12/I2C_Subroutines/I2C_subroutines_1.c **** char segment = 'a'; char digit_num = 0;
  50:../../../Resources_V12/I2C_Subroutines/I2C_subroutines_1.c **** char s[2]; char num_bytes=2; char mode = 2;
  51:../../../Resources_V12/I2C_Subroutines/I2C_subroutines_1.c **** s[0] = segment;
  52:../../../Resources_V12/I2C_Subroutines/I2C_subroutines_1.c **** s[1] = digit_num; 
  53:../../../Resources_V12/I2C_Subroutines/I2C_subroutines_1.c **** I2C_Tx(num_bytes,mode, s);}
  54:../../../Resources_V12/I2C_Subroutines/I2C_subroutines_1.c **** 
  55:../../../Resources_V12/I2C_Subroutines/I2C_subroutines_1.c **** 
  56:../../../Resources_V12/I2C_Subroutines/I2C_subroutines_1.c **** 
  57:../../../Resources_V12/I2C_Subroutines/I2C_subroutines_1.c **** /************************************************************************/
  58:../../../Resources_V12/I2C_Subroutines/I2C_subroutines_1.c **** void I2C_Tx_8_byte_array(char s[]){									//was I2C_Tx_1
  59:../../../Resources_V12/I2C_Subroutines/I2C_subroutines_1.c **** char num_bytes=8; char mode=4;
  60:../../../Resources_V12/I2C_Subroutines/I2C_subroutines_1.c **** I2C_Tx(num_bytes,mode, s);}
  61:../../../Resources_V12/I2C_Subroutines/I2C_subroutines_1.c **** 
  62:../../../Resources_V12/I2C_Subroutines/I2C_subroutines_1.c **** /************************************************************************/
  63:../../../Resources_V12/I2C_Subroutines/I2C_subroutines_1.c **** void I2C_Tx_8_byte_array_plus_mode(char mode, char s[]){			//was I2C_Tx_1('F', digits)
  64:../../../Resources_V12/I2C_Subroutines/I2C_subroutines_1.c **** char num_bytes=8;
  65:../../../Resources_V12/I2C_Subroutines/I2C_subroutines_1.c **** I2C_Tx(num_bytes,mode, s);}
  66:../../../Resources_V12/I2C_Subroutines/I2C_subroutines_1.c **** 
  67:../../../Resources_V12/I2C_Subroutines/I2C_subroutines_1.c **** 
  68:../../../Resources_V12/I2C_Subroutines/I2C_subroutines_1.c **** /************************************************************************/
  69:../../../Resources_V12/I2C_Subroutines/I2C_subroutines_1.c **** void I2C_Tx_BWops(char s[]){										//Bit wise operations
  70:../../../Resources_V12/I2C_Subroutines/I2C_subroutines_1.c **** char num_bytes=8;
  71:../../../Resources_V12/I2C_Subroutines/I2C_subroutines_1.c **** char mode = 'G';
  72:../../../Resources_V12/I2C_Subroutines/I2C_subroutines_1.c **** I2C_Tx(num_bytes,mode, s);}
  73:../../../Resources_V12/I2C_Subroutines/I2C_subroutines_1.c **** 
  74:../../../Resources_V12/I2C_Subroutines/I2C_subroutines_1.c **** 
  75:../../../Resources_V12/I2C_Subroutines/I2C_subroutines_1.c **** /************************************************************************/
  76:../../../Resources_V12/I2C_Subroutines/I2C_subroutines_1.c **** void I2C_Tx_OS_timer(char mode, char s[]){								
  77:../../../Resources_V12/I2C_Subroutines/I2C_subroutines_1.c **** char num_bytes=8;
  78:../../../Resources_V12/I2C_Subroutines/I2C_subroutines_1.c **** I2C_Tx(num_bytes,mode, s);}
  79:../../../Resources_V12/I2C_Subroutines/I2C_subroutines_1.c **** 
  80:../../../Resources_V12/I2C_Subroutines/I2C_subroutines_1.c **** /************************************************************************/
  81:../../../Resources_V12/I2C_Subroutines/I2C_subroutines_1.c **** void I2C_Tx_Clock_command(char timer_mode, char command){			
  82:../../../Resources_V12/I2C_Subroutines/I2C_subroutines_1.c **** char s[2]; char num_bytes=1;
  83:../../../Resources_V12/I2C_Subroutines/I2C_subroutines_1.c **** s[0] = command;
  84:../../../Resources_V12/I2C_Subroutines/I2C_subroutines_1.c **** I2C_Tx(num_bytes, timer_mode, s);}
  85:../../../Resources_V12/I2C_Subroutines/I2C_subroutines_1.c **** 
  86:../../../Resources_V12/I2C_Subroutines/I2C_subroutines_1.c **** /************************************************************************/
  87:../../../Resources_V12/I2C_Subroutines/I2C_subroutines_1.c **** void I2C_Tx_display_char (char single_char, char sign_bit){
  88:../../../Resources_V12/I2C_Subroutines/I2C_subroutines_1.c **** char s[2]; char num_bytes=2; char mode = 5;
  89:../../../Resources_V12/I2C_Subroutines/I2C_subroutines_1.c **** s[0] = single_char;
  90:../../../Resources_V12/I2C_Subroutines/I2C_subroutines_1.c **** s[1] = sign_bit;
  91:../../../Resources_V12/I2C_Subroutines/I2C_subroutines_1.c **** I2C_Tx(num_bytes, mode, s);}
  92:../../../Resources_V12/I2C_Subroutines/I2C_subroutines_1.c **** 
  93:../../../Resources_V12/I2C_Subroutines/I2C_subroutines_1.c **** 
  94:../../../Resources_V12/I2C_Subroutines/I2C_subroutines_1.c **** /************************************************************************/
  95:../../../Resources_V12/I2C_Subroutines/I2C_subroutines_1.c **** void I2C_Tx_2_chars(char mode, char letter, char digit_num){		//was I2C_Tx_4
  96:../../../Resources_V12/I2C_Subroutines/I2C_subroutines_1.c **** char s[2]; char num_bytes=2;
  97:../../../Resources_V12/I2C_Subroutines/I2C_subroutines_1.c **** for (int m = 0;  m < 2; m++){
  98:../../../Resources_V12/I2C_Subroutines/I2C_subroutines_1.c **** switch(m){
  99:../../../Resources_V12/I2C_Subroutines/I2C_subroutines_1.c **** case 0: s[m] = letter;break;
 100:../../../Resources_V12/I2C_Subroutines/I2C_subroutines_1.c **** case 1: s[m] = digit_num; break;}}
 101:../../../Resources_V12/I2C_Subroutines/I2C_subroutines_1.c **** I2C_Tx(num_bytes,mode, s);}
 102:../../../Resources_V12/I2C_Subroutines/I2C_subroutines_1.c **** 
 103:../../../Resources_V12/I2C_Subroutines/I2C_subroutines_1.c **** 
 104:../../../Resources_V12/I2C_Subroutines/I2C_subroutines_1.c **** 
 105:../../../Resources_V12/I2C_Subroutines/I2C_subroutines_1.c **** /************************************************************************/
 106:../../../Resources_V12/I2C_Subroutines/I2C_subroutines_1.c **** void I2C_initiate_10mS_ref(void){
 4393               		.loc 6 106 0 is_stmt 1
 4394               		.cfi_startproc
 4395               	/* prologue: function */
 4396               	/* frame size = 0 */
 4397               	/* stack size = 0 */
 4398               	.L__stack_usage = 0
 4399               	.LVL322:
 107:../../../Resources_V12/I2C_Subroutines/I2C_subroutines_1.c **** char num_bytes=0;
 108:../../../Resources_V12/I2C_Subroutines/I2C_subroutines_1.c **** char mode = 'F';
 109:../../../Resources_V12/I2C_Subroutines/I2C_subroutines_1.c **** 
 110:../../../Resources_V12/I2C_Subroutines/I2C_subroutines_1.c **** waiting_for_I2C_master;
 4400               		.loc 6 110 0
 4401 1338 84E4      		ldi r24,lo8(68)
 4402 133a 8093 BC00 		sts 188,r24
 4403               	.L452:
 4404               		.loc 6 110 0 is_stmt 0 discriminator 2
 4405 133e 8091 BC00 		lds r24,188
 4406 1342 87FF      		sbrs r24,7
 4407 1344 00C0      		rjmp .L452
 4408               		.loc 6 110 0 discriminator 3
 4409 1346 8091 BB00 		lds r24,187
 111:../../../Resources_V12/I2C_Subroutines/I2C_subroutines_1.c **** send_byte_with_Ack(num_bytes);
 4410               		.loc 6 111 0 is_stmt 1 discriminator 3
 4411 134a 80E0      		ldi r24,0
 4412 134c 0E94 0000 		call send_byte_with_Ack
 4413               	.LVL323:
 112:../../../Resources_V12/I2C_Subroutines/I2C_subroutines_1.c **** send_byte_with_Nack(mode);
 4414               		.loc 6 112 0 discriminator 3
 4415 1350 86E4      		ldi r24,lo8(70)
 4416 1352 0E94 0000 		call send_byte_with_Nack
 4417               	.LVL324:
 113:../../../Resources_V12/I2C_Subroutines/I2C_subroutines_1.c **** 
 114:../../../Resources_V12/I2C_Subroutines/I2C_subroutines_1.c **** TWCR = (1 << TWINT) | (1 << TWEN);		//clear interrupt and leave I2C slave active
 4418               		.loc 6 114 0 discriminator 3
 4419 1356 84E8      		ldi r24,lo8(-124)
 4420 1358 8093 BC00 		sts 188,r24
 115:../../../Resources_V12/I2C_Subroutines/I2C_subroutines_1.c **** TWCR |= (1 << TWEA) | (1 << TWIE);} 	//Slave mode with interrupt and Enable Acknowledge
 4421               		.loc 6 115 0 discriminator 3
 4422 135c 8091 BC00 		lds r24,188
 4423 1360 8164      		ori r24,lo8(65)
 4424 1362 8093 BC00 		sts 188,r24
 4425 1366 0895      		ret
 4426               		.cfi_endproc
 4427               	.LFE22:
 4429               	.global	I2C_Tx_float_display_control
 4431               	I2C_Tx_float_display_control:
 4432               	.LFB27:
 4433               		.file 7 "../../../Resources_V12/I2C_Subroutines/I2C_subroutines_2.c"
   1:../../../Resources_V12/I2C_Subroutines/I2C_subroutines_2.c **** 
   2:../../../Resources_V12/I2C_Subroutines/I2C_subroutines_2.c **** #include "../../Resources_V12/Header_files/I_O_from switches.h"
   3:../../../Resources_V12/I2C_Subroutines/I2C_subroutines_2.c **** 
   4:../../../Resources_V12/I2C_Subroutines/I2C_subroutines_2.c **** 
   5:../../../Resources_V12/I2C_Subroutines/I2C_subroutines_2.c **** void I2C_Tx_long(long);
   6:../../../Resources_V12/I2C_Subroutines/I2C_subroutines_2.c **** void I2C_Tx_real_num(long);
   7:../../../Resources_V12/I2C_Subroutines/I2C_subroutines_2.c **** void I2C_Tx_float_num(long, char);
   8:../../../Resources_V12/I2C_Subroutines/I2C_subroutines_2.c **** void I2C_Tx_float_display_control(void);
   9:../../../Resources_V12/I2C_Subroutines/I2C_subroutines_2.c **** long I2C_displayToNum(void);						//was I2C_displayToBinary
  10:../../../Resources_V12/I2C_Subroutines/I2C_subroutines_2.c **** 
  11:../../../Resources_V12/I2C_Subroutines/I2C_subroutines_2.c **** void I2C_Tx_Initiate_tables(char*);
  12:../../../Resources_V12/I2C_Subroutines/I2C_subroutines_2.c **** void I2C_Tx_Inc_tables(char*);
  13:../../../Resources_V12/I2C_Subroutines/I2C_subroutines_2.c **** void I2C_Tx_dec_tables(char*);
  14:../../../Resources_V12/I2C_Subroutines/I2C_subroutines_2.c **** 
  15:../../../Resources_V12/I2C_Subroutines/I2C_subroutines_2.c **** void I2C_Tx_Uarithmetic_OP(char);
  16:../../../Resources_V12/I2C_Subroutines/I2C_subroutines_2.c **** void I2C_Tx_2URNs_from_IO(char*);
  17:../../../Resources_V12/I2C_Subroutines/I2C_subroutines_2.c **** void I2C_Tx_accumulator_op(char*,char);
  18:../../../Resources_V12/I2C_Subroutines/I2C_subroutines_2.c **** 
  19:../../../Resources_V12/I2C_Subroutines/I2C_subroutines_2.c **** void send_byte_with_Ack(char);
  20:../../../Resources_V12/I2C_Subroutines/I2C_subroutines_2.c **** void send_byte_with_Nack(char);
  21:../../../Resources_V12/I2C_Subroutines/I2C_subroutines_2.c **** char receive_byte_with_Ack(void);
  22:../../../Resources_V12/I2C_Subroutines/I2C_subroutines_2.c **** char receive_byte_with_Nack(void);
  23:../../../Resources_V12/I2C_Subroutines/I2C_subroutines_2.c **** void I2C_Rx_RN(unsigned long *, signed char *);
  24:../../../Resources_V12/I2C_Subroutines/I2C_subroutines_2.c **** 
  25:../../../Resources_V12/I2C_Subroutines/I2C_subroutines_2.c **** void Num_to_PC(char, long);
  26:../../../Resources_V12/I2C_Subroutines/I2C_subroutines_2.c **** void String_to_PC(char*);
  27:../../../Resources_V12/I2C_Subroutines/I2C_subroutines_2.c **** void Exp_to_PC (signed char);
  28:../../../Resources_V12/I2C_Subroutines/I2C_subroutines_2.c **** 
  29:../../../Resources_V12/I2C_Subroutines/I2C_subroutines_2.c **** /************************************************************************/
  30:../../../Resources_V12/I2C_Subroutines/I2C_subroutines_2.c **** void I2C_Tx_long(long L_number){
  31:../../../Resources_V12/I2C_Subroutines/I2C_subroutines_2.c **** char s[4];
  32:../../../Resources_V12/I2C_Subroutines/I2C_subroutines_2.c **** char num_bytes=4; char mode=6;
  33:../../../Resources_V12/I2C_Subroutines/I2C_subroutines_2.c **** for(int m=0; m<=3; m++){s[m] = (L_number >> (8*(3-m)));}
  34:../../../Resources_V12/I2C_Subroutines/I2C_subroutines_2.c **** I2C_Tx(num_bytes,mode, s);}
  35:../../../Resources_V12/I2C_Subroutines/I2C_subroutines_2.c **** 
  36:../../../Resources_V12/I2C_Subroutines/I2C_subroutines_2.c **** 
  37:../../../Resources_V12/I2C_Subroutines/I2C_subroutines_2.c **** /************************************************************************/
  38:../../../Resources_V12/I2C_Subroutines/I2C_subroutines_2.c **** void I2C_Tx_real_num(long L_number){
  39:../../../Resources_V12/I2C_Subroutines/I2C_subroutines_2.c **** char s[4];
  40:../../../Resources_V12/I2C_Subroutines/I2C_subroutines_2.c **** char num_bytes=4; char mode='J';
  41:../../../Resources_V12/I2C_Subroutines/I2C_subroutines_2.c **** for(int m=0; m<=3; m++){s[m] = (L_number >> (8*(3-m)));}
  42:../../../Resources_V12/I2C_Subroutines/I2C_subroutines_2.c **** I2C_Tx(num_bytes,mode, s);}
  43:../../../Resources_V12/I2C_Subroutines/I2C_subroutines_2.c **** 
  44:../../../Resources_V12/I2C_Subroutines/I2C_subroutines_2.c **** /************************************************************************/
  45:../../../Resources_V12/I2C_Subroutines/I2C_subroutines_2.c **** void I2C_Tx_float_num(long L_number, char expnt){
  46:../../../Resources_V12/I2C_Subroutines/I2C_subroutines_2.c **** char s[5];
  47:../../../Resources_V12/I2C_Subroutines/I2C_subroutines_2.c **** char num_bytes=5; char mode='K';
  48:../../../Resources_V12/I2C_Subroutines/I2C_subroutines_2.c **** for(int m=0; m<=3; m++){s[m] = (L_number >> (8*(3-m)));}
  49:../../../Resources_V12/I2C_Subroutines/I2C_subroutines_2.c **** s[4] = expnt;
  50:../../../Resources_V12/I2C_Subroutines/I2C_subroutines_2.c **** I2C_Tx(num_bytes,mode, s);}
  51:../../../Resources_V12/I2C_Subroutines/I2C_subroutines_2.c **** 
  52:../../../Resources_V12/I2C_Subroutines/I2C_subroutines_2.c **** /************************************************************************/
  53:../../../Resources_V12/I2C_Subroutines/I2C_subroutines_2.c **** void I2C_Tx_float_display_control(void){
 4434               		.loc 7 53 0
 4435               		.cfi_startproc
 4436 1368 FF92      		push r15
 4437               	.LCFI152:
 4438               		.cfi_def_cfa_offset 3
 4439               		.cfi_offset 15, -2
 4440 136a 0F93      		push r16
 4441               	.LCFI153:
 4442               		.cfi_def_cfa_offset 4
 4443               		.cfi_offset 16, -3
 4444 136c 1F93      		push r17
 4445               	.LCFI154:
 4446               		.cfi_def_cfa_offset 5
 4447               		.cfi_offset 17, -4
 4448 136e CF93      		push r28
 4449               	.LCFI155:
 4450               		.cfi_def_cfa_offset 6
 4451               		.cfi_offset 28, -5
 4452 1370 DF93      		push r29
 4453               	.LCFI156:
 4454               		.cfi_def_cfa_offset 7
 4455               		.cfi_offset 29, -6
 4456               	/* prologue: function */
 4457               	/* frame size = 0 */
 4458               	/* stack size = 5 */
 4459               	.L__stack_usage = 5
 4460               	.LVL325:
  54:../../../Resources_V12/I2C_Subroutines/I2C_subroutines_2.c **** char PCMSK0_backup, PCMSK2_backup, float_display_mode = '0';
  55:../../../Resources_V12/I2C_Subroutines/I2C_subroutines_2.c **** PCMSK0_backup= PCMSK0;
 4461               		.loc 7 55 0
 4462 1372 1091 6B00 		lds r17,107
 4463               	.LVL326:
  56:../../../Resources_V12/I2C_Subroutines/I2C_subroutines_2.c **** PCMSK2_backup= PCMSK2;
 4464               		.loc 7 56 0
 4465 1376 D091 6D00 		lds r29,109
 4466               	.LVL327:
  57:../../../Resources_V12/I2C_Subroutines/I2C_subroutines_2.c **** if (PCIenabled){disable_pci_on_sw2;disable_pci_on_sw1_and_sw3;}						//CHECK are we masking or diss
 4467               		.loc 7 57 0
 4468 137a 8091 6D00 		lds r24,109
 4469 137e 8478      		andi r24,lo8(-124)
 4470 1380 8438      		cpi r24,lo8(-124)
 4471 1382 01F0      		breq .L455
 4472               		.loc 7 57 0 is_stmt 0 discriminator 2
 4473 1384 8091 6B00 		lds r24,107
 4474 1388 86FF      		sbrs r24,6
 4475 138a 00C0      		rjmp .L456
 4476               	.L455:
 4477               		.loc 7 57 0 discriminator 3
 4478 138c 8091 6B00 		lds r24,107
 4479 1390 8F7B      		andi r24,lo8(-65)
 4480 1392 8093 6B00 		sts 107,r24
 4481 1396 8091 6D00 		lds r24,109
 4482 139a 8B77      		andi r24,lo8(123)
 4483 139c 8093 6D00 		sts 109,r24
 4484               	.L456:
  58:../../../Resources_V12/I2C_Subroutines/I2C_subroutines_2.c **** while(1){
  59:../../../Resources_V12/I2C_Subroutines/I2C_subroutines_2.c **** if(switch_2_down)float_display_mode = '1'; else float_display_mode = '0';
  60:../../../Resources_V12/I2C_Subroutines/I2C_subroutines_2.c **** if((switch_1_down)||(switch_3_down))float_display_mode = '2';
  61:../../../Resources_V12/I2C_Subroutines/I2C_subroutines_2.c **** waiting_for_I2C_master;
 4485               		.loc 7 61 0 is_stmt 1
 4486 13a0 84E4      		ldi r24,lo8(68)
 4487 13a2 F82E      		mov r15,r24
  62:../../../Resources_V12/I2C_Subroutines/I2C_subroutines_2.c **** send_byte_with_Nack(float_display_mode);
  63:../../../Resources_V12/I2C_Subroutines/I2C_subroutines_2.c **** clear_I2C_interrupt;
 4488               		.loc 7 63 0
 4489 13a4 00E8      		ldi r16,lo8(-128)
 4490               	.LVL328:
 4491               	.L460:
  59:../../../Resources_V12/I2C_Subroutines/I2C_subroutines_2.c **** if((switch_1_down)||(switch_3_down))float_display_mode = '2';
 4492               		.loc 7 59 0
 4493 13a6 1E9B      		sbis 0x3,6
 4494 13a8 00C0      		rjmp .L461
 4495 13aa C0E3      		ldi r28,lo8(48)
 4496 13ac 00C0      		rjmp .L457
 4497               	.L461:
 4498 13ae C1E3      		ldi r28,lo8(49)
 4499               	.L457:
 4500               	.LVL329:
  60:../../../Resources_V12/I2C_Subroutines/I2C_subroutines_2.c **** waiting_for_I2C_master;
 4501               		.loc 7 60 0
 4502 13b0 4A9B      		sbis 0x9,2
 4503 13b2 00C0      		rjmp .L463
  60:../../../Resources_V12/I2C_Subroutines/I2C_subroutines_2.c **** waiting_for_I2C_master;
 4504               		.loc 7 60 0 is_stmt 0 discriminator 2
 4505 13b4 4F9B      		sbis 0x9,7
 4506               	.L463:
  60:../../../Resources_V12/I2C_Subroutines/I2C_subroutines_2.c **** waiting_for_I2C_master;
 4507               		.loc 7 60 0
 4508 13b6 C2E3      		ldi r28,lo8(50)
 4509               	.LVL330:
 4510               	.L458:
  61:../../../Resources_V12/I2C_Subroutines/I2C_subroutines_2.c **** send_byte_with_Nack(float_display_mode);
 4511               		.loc 7 61 0 is_stmt 1
 4512 13b8 F092 BC00 		sts 188,r15
 4513               	.L459:
  61:../../../Resources_V12/I2C_Subroutines/I2C_subroutines_2.c **** send_byte_with_Nack(float_display_mode);
 4514               		.loc 7 61 0 is_stmt 0 discriminator 2
 4515 13bc 8091 BC00 		lds r24,188
 4516 13c0 87FF      		sbrs r24,7
 4517 13c2 00C0      		rjmp .L459
  61:../../../Resources_V12/I2C_Subroutines/I2C_subroutines_2.c **** send_byte_with_Nack(float_display_mode);
 4518               		.loc 7 61 0 discriminator 3
 4519 13c4 8091 BB00 		lds r24,187
  62:../../../Resources_V12/I2C_Subroutines/I2C_subroutines_2.c **** clear_I2C_interrupt;
 4520               		.loc 7 62 0 is_stmt 1 discriminator 3
 4521 13c8 8C2F      		mov r24,r28
 4522 13ca 0E94 0000 		call send_byte_with_Nack
 4523               	.LVL331:
 4524               		.loc 7 63 0 discriminator 3
 4525 13ce 0093 BC00 		sts 188,r16
  64:../../../Resources_V12/I2C_Subroutines/I2C_subroutines_2.c **** if(float_display_mode == '2')break;}
 4526               		.loc 7 64 0 discriminator 3
 4527 13d2 C233      		cpi r28,lo8(50)
 4528 13d4 01F4      		brne .L460
  65:../../../Resources_V12/I2C_Subroutines/I2C_subroutines_2.c **** PCMSK0 = PCMSK0_backup;
 4529               		.loc 7 65 0
 4530 13d6 1093 6B00 		sts 107,r17
  66:../../../Resources_V12/I2C_Subroutines/I2C_subroutines_2.c **** PCMSK2 = PCMSK2_backup;}
 4531               		.loc 7 66 0
 4532 13da D093 6D00 		sts 109,r29
 4533               	/* epilogue start */
 4534 13de DF91      		pop r29
 4535               	.LVL332:
 4536 13e0 CF91      		pop r28
 4537               	.LVL333:
 4538 13e2 1F91      		pop r17
 4539               	.LVL334:
 4540 13e4 0F91      		pop r16
 4541 13e6 FF90      		pop r15
 4542 13e8 0895      		ret
 4543               		.cfi_endproc
 4544               	.LFE27:
 4546               	.global	I2C_Tx_initiate_mode
 4548               	I2C_Tx_initiate_mode:
 4549               	.LFB63:
  11:../../../Resources_V12/I2C_Subroutines/I2C_slave_Rx_Tx.c **** char num_bytes = 0;
 4550               		.loc 5 11 0
 4551               		.cfi_startproc
 4552               	.LVL335:
 4553 13ea CF93      		push r28
 4554               	.LCFI157:
 4555               		.cfi_def_cfa_offset 3
 4556               		.cfi_offset 28, -2
 4557               	/* prologue: function */
 4558               	/* frame size = 0 */
 4559               	/* stack size = 1 */
 4560               	.L__stack_usage = 1
 4561 13ec C82F      		mov r28,r24
 4562               	.LVL336:
  13:../../../Resources_V12/I2C_Subroutines/I2C_slave_Rx_Tx.c **** send_byte_with_Ack(num_bytes);
 4563               		.loc 5 13 0
 4564 13ee 84E4      		ldi r24,lo8(68)
 4565               	.LVL337:
 4566 13f0 8093 BC00 		sts 188,r24
 4567               	.L473:
  13:../../../Resources_V12/I2C_Subroutines/I2C_slave_Rx_Tx.c **** send_byte_with_Ack(num_bytes);
 4568               		.loc 5 13 0 is_stmt 0 discriminator 2
 4569 13f4 8091 BC00 		lds r24,188
 4570 13f8 87FF      		sbrs r24,7
 4571 13fa 00C0      		rjmp .L473
  13:../../../Resources_V12/I2C_Subroutines/I2C_slave_Rx_Tx.c **** send_byte_with_Ack(num_bytes);
 4572               		.loc 5 13 0 discriminator 3
 4573 13fc 8091 BB00 		lds r24,187
  14:../../../Resources_V12/I2C_Subroutines/I2C_slave_Rx_Tx.c **** send_byte_with_Nack(mode);
 4574               		.loc 5 14 0 is_stmt 1 discriminator 3
 4575 1400 80E0      		ldi r24,0
 4576 1402 0E94 0000 		call send_byte_with_Ack
 4577               	.LVL338:
  15:../../../Resources_V12/I2C_Subroutines/I2C_slave_Rx_Tx.c **** TWCR = (1 << TWINT);}
 4578               		.loc 5 15 0 discriminator 3
 4579 1406 8C2F      		mov r24,r28
 4580 1408 0E94 0000 		call send_byte_with_Nack
 4581               	.LVL339:
  16:../../../Resources_V12/I2C_Subroutines/I2C_slave_Rx_Tx.c **** 
 4582               		.loc 5 16 0 discriminator 3
 4583 140c 80E8      		ldi r24,lo8(-128)
 4584 140e 8093 BC00 		sts 188,r24
 4585               	/* epilogue start */
 4586 1412 CF91      		pop r28
 4587               	.LVL340:
 4588 1414 0895      		ret
 4589               		.cfi_endproc
 4590               	.LFE63:
 4592               	.global	I2C_Tx
 4594               	I2C_Tx:
 4595               	.LFB64:
  21:../../../Resources_V12/I2C_Subroutines/I2C_slave_Rx_Tx.c **** waiting_for_I2C_master;
 4596               		.loc 5 21 0
 4597               		.cfi_startproc
 4598               	.LVL341:
 4599 1416 CF92      		push r12
 4600               	.LCFI158:
 4601               		.cfi_def_cfa_offset 3
 4602               		.cfi_offset 12, -2
 4603 1418 DF92      		push r13
 4604               	.LCFI159:
 4605               		.cfi_def_cfa_offset 4
 4606               		.cfi_offset 13, -3
 4607 141a EF92      		push r14
 4608               	.LCFI160:
 4609               		.cfi_def_cfa_offset 5
 4610               		.cfi_offset 14, -4
 4611 141c FF92      		push r15
 4612               	.LCFI161:
 4613               		.cfi_def_cfa_offset 6
 4614               		.cfi_offset 15, -5
 4615 141e 0F93      		push r16
 4616               	.LCFI162:
 4617               		.cfi_def_cfa_offset 7
 4618               		.cfi_offset 16, -6
 4619 1420 1F93      		push r17
 4620               	.LCFI163:
 4621               		.cfi_def_cfa_offset 8
 4622               		.cfi_offset 17, -7
 4623 1422 CF93      		push r28
 4624               	.LCFI164:
 4625               		.cfi_def_cfa_offset 9
 4626               		.cfi_offset 28, -8
 4627 1424 DF93      		push r29
 4628               	.LCFI165:
 4629               		.cfi_def_cfa_offset 10
 4630               		.cfi_offset 29, -9
 4631               	/* prologue: function */
 4632               	/* frame size = 0 */
 4633               	/* stack size = 8 */
 4634               	.L__stack_usage = 8
 4635 1426 082F      		mov r16,r24
 4636 1428 C62F      		mov r28,r22
 4637 142a F42E      		mov r15,r20
 4638 142c 152F      		mov r17,r21
  22:../../../Resources_V12/I2C_Subroutines/I2C_slave_Rx_Tx.c **** send_byte_with_Ack(num_bytes);
 4639               		.loc 5 22 0
 4640 142e 84E4      		ldi r24,lo8(68)
 4641               	.LVL342:
 4642 1430 8093 BC00 		sts 188,r24
 4643               	.L476:
  22:../../../Resources_V12/I2C_Subroutines/I2C_slave_Rx_Tx.c **** send_byte_with_Ack(num_bytes);
 4644               		.loc 5 22 0 is_stmt 0 discriminator 2
 4645 1434 8091 BC00 		lds r24,188
 4646 1438 87FF      		sbrs r24,7
 4647 143a 00C0      		rjmp .L476
  22:../../../Resources_V12/I2C_Subroutines/I2C_slave_Rx_Tx.c **** send_byte_with_Ack(num_bytes);
 4648               		.loc 5 22 0 discriminator 3
 4649 143c 8091 BB00 		lds r24,187
  23:../../../Resources_V12/I2C_Subroutines/I2C_slave_Rx_Tx.c **** send_byte_with_Ack(mode);
 4650               		.loc 5 23 0 is_stmt 1 discriminator 3
 4651 1440 802F      		mov r24,r16
 4652 1442 0E94 0000 		call send_byte_with_Ack
 4653               	.LVL343:
  24:../../../Resources_V12/I2C_Subroutines/I2C_slave_Rx_Tx.c **** for (int m = 0;  m < num_bytes; m++){
 4654               		.loc 5 24 0 discriminator 3
 4655 1446 8C2F      		mov r24,r28
 4656 1448 0E94 0000 		call send_byte_with_Ack
 4657               	.LVL344:
 4658 144c CF2D      		mov r28,r15
 4659               	.LVL345:
 4660 144e D12F      		mov r29,r17
 4661               	.LBB79:
  25:../../../Resources_V12/I2C_Subroutines/I2C_slave_Rx_Tx.c **** if (m==num_bytes-1){send_byte_with_Nack(s[m]);}
 4662               		.loc 5 25 0 discriminator 3
 4663 1450 E12C      		mov r14,__zero_reg__
 4664 1452 F12C      		mov r15,__zero_reg__
 4665 1454 10E0      		ldi r17,0
  26:../../../Resources_V12/I2C_Subroutines/I2C_slave_Rx_Tx.c **** else {send_byte_with_Ack(s[m]);}}
 4666               		.loc 5 26 0 discriminator 3
 4667 1456 6801      		movw r12,r16
 4668 1458 81E0      		ldi r24,1
 4669 145a C81A      		sub r12,r24
 4670 145c D108      		sbc r13,__zero_reg__
 4671               	.LVL346:
 4672               	.L477:
  25:../../../Resources_V12/I2C_Subroutines/I2C_slave_Rx_Tx.c **** if (m==num_bytes-1){send_byte_with_Nack(s[m]);}
 4673               		.loc 5 25 0 discriminator 1
 4674 145e E016      		cp r14,r16
 4675 1460 F106      		cpc r15,r17
 4676 1462 04F4      		brge .L482
  26:../../../Resources_V12/I2C_Subroutines/I2C_slave_Rx_Tx.c **** else {send_byte_with_Ack(s[m]);}}
 4677               		.loc 5 26 0
 4678 1464 8881      		ld r24,Y
 4679 1466 EC14      		cp r14,r12
 4680 1468 FD04      		cpc r15,r13
 4681 146a 01F4      		brne .L478
  26:../../../Resources_V12/I2C_Subroutines/I2C_slave_Rx_Tx.c **** else {send_byte_with_Ack(s[m]);}}
 4682               		.loc 5 26 0 is_stmt 0 discriminator 1
 4683 146c 0E94 0000 		call send_byte_with_Nack
 4684               	.LVL347:
 4685 1470 00C0      		rjmp .L479
 4686               	.L478:
  27:../../../Resources_V12/I2C_Subroutines/I2C_slave_Rx_Tx.c **** TWCR = (1 << TWINT);}										//Clear interrupt and close I2C slave
 4687               		.loc 5 27 0 is_stmt 1
 4688 1472 0E94 0000 		call send_byte_with_Ack
 4689               	.LVL348:
 4690               	.L479:
  25:../../../Resources_V12/I2C_Subroutines/I2C_slave_Rx_Tx.c **** if (m==num_bytes-1){send_byte_with_Nack(s[m]);}
 4691               		.loc 5 25 0 discriminator 2
 4692 1476 8FEF      		ldi r24,-1
 4693 1478 E81A      		sub r14,r24
 4694 147a F80A      		sbc r15,r24
 4695               	.LVL349:
 4696 147c 2196      		adiw r28,1
 4697 147e 00C0      		rjmp .L477
 4698               	.L482:
 4699               	.LBE79:
  28:../../../Resources_V12/I2C_Subroutines/I2C_slave_Rx_Tx.c **** 
 4700               		.loc 5 28 0
 4701 1480 80E8      		ldi r24,lo8(-128)
 4702 1482 8093 BC00 		sts 188,r24
 4703               	/* epilogue start */
 4704 1486 DF91      		pop r29
 4705 1488 CF91      		pop r28
 4706 148a 1F91      		pop r17
 4707 148c 0F91      		pop r16
 4708               	.LVL350:
 4709 148e FF90      		pop r15
 4710 1490 EF90      		pop r14
 4711               	.LVL351:
 4712 1492 DF90      		pop r13
 4713 1494 CF90      		pop r12
 4714 1496 0895      		ret
 4715               		.cfi_endproc
 4716               	.LFE64:
 4718               	.global	I2C_Tx_2_integers
 4720               	I2C_Tx_2_integers:
 4721               	.LFB12:
  28:../../../Resources_V12/I2C_Subroutines/I2C_subroutines_1.c **** char num_bytes=4; char mode = 1; char s[4];
 4722               		.loc 6 28 0
 4723               		.cfi_startproc
 4724               	.LVL352:
 4725 1498 CF93      		push r28
 4726               	.LCFI166:
 4727               		.cfi_def_cfa_offset 3
 4728               		.cfi_offset 28, -2
 4729 149a DF93      		push r29
 4730               	.LCFI167:
 4731               		.cfi_def_cfa_offset 4
 4732               		.cfi_offset 29, -3
 4733 149c 00D0      		rcall .
 4734 149e 00D0      		rcall .
 4735               	.LCFI168:
 4736               		.cfi_def_cfa_offset 8
 4737 14a0 CDB7      		in r28,__SP_L__
 4738 14a2 DEB7      		in r29,__SP_H__
 4739               	.LCFI169:
 4740               		.cfi_def_cfa_register 28
 4741               	/* prologue: function */
 4742               	/* frame size = 4 */
 4743               	/* stack size = 6 */
 4744               	.L__stack_usage = 6
 4745               	.LVL353:
 4746               	.LBB80:
  32:../../../Resources_V12/I2C_Subroutines/I2C_subroutines_1.c **** case 1: s[m] = s1 >> 8; break; 									//Send S1 higher byte									
 4747               		.loc 6 32 0
 4748 14a4 8983      		std Y+1,r24
 4749               	.LVL354:
  33:../../../Resources_V12/I2C_Subroutines/I2C_subroutines_1.c **** case 2: s[m] = s2; 	break;											//Send S1 lower byte
 4750               		.loc 6 33 0
 4751 14a6 9A83      		std Y+2,r25
 4752               	.LVL355:
  34:../../../Resources_V12/I2C_Subroutines/I2C_subroutines_1.c **** case 3: s[m] = s2 >> 8; break;}}									//Send S1 higher byte
 4753               		.loc 6 34 0
 4754 14a8 6B83      		std Y+3,r22
 4755               	.LVL356:
  35:../../../Resources_V12/I2C_Subroutines/I2C_subroutines_1.c **** I2C_Tx(num_bytes,mode, s);}
 4756               		.loc 6 35 0
 4757 14aa 7C83      		std Y+4,r23
 4758               	.LVL357:
 4759               	.LBE80:
  36:../../../Resources_V12/I2C_Subroutines/I2C_subroutines_1.c **** 
 4760               		.loc 6 36 0
 4761 14ac AE01      		movw r20,r28
 4762 14ae 4F5F      		subi r20,-1
 4763 14b0 5F4F      		sbci r21,-1
 4764 14b2 61E0      		ldi r22,lo8(1)
 4765               	.LVL358:
 4766 14b4 84E0      		ldi r24,lo8(4)
 4767               	.LVL359:
 4768 14b6 0E94 0000 		call I2C_Tx
 4769               	.LVL360:
 4770               	/* epilogue start */
 4771 14ba 0F90      		pop __tmp_reg__
 4772 14bc 0F90      		pop __tmp_reg__
 4773 14be 0F90      		pop __tmp_reg__
 4774 14c0 0F90      		pop __tmp_reg__
 4775 14c2 DF91      		pop r29
 4776 14c4 CF91      		pop r28
 4777 14c6 0895      		ret
 4778               		.cfi_endproc
 4779               	.LFE12:
 4781               	.global	I2C_Tx_any_segment
 4783               	I2C_Tx_any_segment:
 4784               	.LFB13:
  40:../../../Resources_V12/I2C_Subroutines/I2C_subroutines_1.c **** char s[2]; char num_bytes=2; char mode = 3;
 4785               		.loc 6 40 0
 4786               		.cfi_startproc
 4787               	.LVL361:
 4788 14c8 CF93      		push r28
 4789               	.LCFI170:
 4790               		.cfi_def_cfa_offset 3
 4791               		.cfi_offset 28, -2
 4792 14ca DF93      		push r29
 4793               	.LCFI171:
 4794               		.cfi_def_cfa_offset 4
 4795               		.cfi_offset 29, -3
 4796 14cc 00D0      		rcall .
 4797               	.LCFI172:
 4798               		.cfi_def_cfa_offset 6
 4799 14ce CDB7      		in r28,__SP_L__
 4800 14d0 DEB7      		in r29,__SP_H__
 4801               	.LCFI173:
 4802               		.cfi_def_cfa_register 28
 4803               	/* prologue: function */
 4804               	/* frame size = 2 */
 4805               	/* stack size = 4 */
 4806               	.L__stack_usage = 4
 4807               	.LVL362:
  42:../../../Resources_V12/I2C_Subroutines/I2C_subroutines_1.c **** s[1] = digit_num; 
 4808               		.loc 6 42 0
 4809 14d2 8983      		std Y+1,r24
  43:../../../Resources_V12/I2C_Subroutines/I2C_subroutines_1.c **** I2C_Tx(num_bytes,mode, s);}
 4810               		.loc 6 43 0
 4811 14d4 6A83      		std Y+2,r22
  44:../../../Resources_V12/I2C_Subroutines/I2C_subroutines_1.c **** 
 4812               		.loc 6 44 0
 4813 14d6 AE01      		movw r20,r28
 4814 14d8 4F5F      		subi r20,-1
 4815 14da 5F4F      		sbci r21,-1
 4816 14dc 63E0      		ldi r22,lo8(3)
 4817               	.LVL363:
 4818 14de 82E0      		ldi r24,lo8(2)
 4819               	.LVL364:
 4820 14e0 0E94 0000 		call I2C_Tx
 4821               	.LVL365:
 4822               	/* epilogue start */
 4823 14e4 0F90      		pop __tmp_reg__
 4824 14e6 0F90      		pop __tmp_reg__
 4825 14e8 DF91      		pop r29
 4826 14ea CF91      		pop r28
 4827 14ec 0895      		ret
 4828               		.cfi_endproc
 4829               	.LFE13:
 4831               	.global	I2C_Tx_any_segment_clear_all
 4833               	I2C_Tx_any_segment_clear_all:
 4834               	.LFB14:
  48:../../../Resources_V12/I2C_Subroutines/I2C_subroutines_1.c **** char segment = 'a'; char digit_num = 0;
 4835               		.loc 6 48 0
 4836               		.cfi_startproc
 4837 14ee CF93      		push r28
 4838               	.LCFI174:
 4839               		.cfi_def_cfa_offset 3
 4840               		.cfi_offset 28, -2
 4841 14f0 DF93      		push r29
 4842               	.LCFI175:
 4843               		.cfi_def_cfa_offset 4
 4844               		.cfi_offset 29, -3
 4845 14f2 00D0      		rcall .
 4846               	.LCFI176:
 4847               		.cfi_def_cfa_offset 6
 4848 14f4 CDB7      		in r28,__SP_L__
 4849 14f6 DEB7      		in r29,__SP_H__
 4850               	.LCFI177:
 4851               		.cfi_def_cfa_register 28
 4852               	/* prologue: function */
 4853               	/* frame size = 2 */
 4854               	/* stack size = 4 */
 4855               	.L__stack_usage = 4
 4856               	.LVL366:
  51:../../../Resources_V12/I2C_Subroutines/I2C_subroutines_1.c **** s[1] = digit_num; 
 4857               		.loc 6 51 0
 4858 14f8 81E6      		ldi r24,lo8(97)
 4859 14fa 8983      		std Y+1,r24
  52:../../../Resources_V12/I2C_Subroutines/I2C_subroutines_1.c **** I2C_Tx(num_bytes,mode, s);}
 4860               		.loc 6 52 0
 4861 14fc 1A82      		std Y+2,__zero_reg__
  53:../../../Resources_V12/I2C_Subroutines/I2C_subroutines_1.c **** 
 4862               		.loc 6 53 0
 4863 14fe AE01      		movw r20,r28
 4864 1500 4F5F      		subi r20,-1
 4865 1502 5F4F      		sbci r21,-1
 4866 1504 62E0      		ldi r22,lo8(2)
 4867 1506 82E0      		ldi r24,lo8(2)
 4868 1508 0E94 0000 		call I2C_Tx
 4869               	.LVL367:
 4870               	/* epilogue start */
 4871 150c 0F90      		pop __tmp_reg__
 4872 150e 0F90      		pop __tmp_reg__
 4873 1510 DF91      		pop r29
 4874 1512 CF91      		pop r28
 4875 1514 0895      		ret
 4876               		.cfi_endproc
 4877               	.LFE14:
 4879               	.global	I2C_Tx_8_byte_array
 4881               	I2C_Tx_8_byte_array:
 4882               	.LFB15:
  58:../../../Resources_V12/I2C_Subroutines/I2C_subroutines_1.c **** char num_bytes=8; char mode=4;
 4883               		.loc 6 58 0
 4884               		.cfi_startproc
 4885               	.LVL368:
 4886               	/* prologue: function */
 4887               	/* frame size = 0 */
 4888               	/* stack size = 0 */
 4889               	.L__stack_usage = 0
  60:../../../Resources_V12/I2C_Subroutines/I2C_subroutines_1.c **** 
 4890               		.loc 6 60 0
 4891 1516 AC01      		movw r20,r24
 4892 1518 64E0      		ldi r22,lo8(4)
 4893 151a 88E0      		ldi r24,lo8(8)
 4894               	.LVL369:
 4895 151c 0C94 0000 		jmp I2C_Tx
 4896               	.LVL370:
 4897               		.cfi_endproc
 4898               	.LFE15:
 4900               		.section	.rodata.str1.1
 4901               	.LC3:
 4902 000b 302E 00   		.string	"0."
 4903               		.text
 4904               	.global	fraction_to_decimal_string
 4906               	fraction_to_decimal_string:
 4907               	.LFB53:
  14:../../../Resources_V12/Subroutines/Arithmetic.c **** long digit;
 4908               		.loc 3 14 0
 4909               		.cfi_startproc
 4910               	.LVL371:
 4911 1520 4F92      		push r4
 4912               	.LCFI178:
 4913               		.cfi_def_cfa_offset 3
 4914               		.cfi_offset 4, -2
 4915 1522 5F92      		push r5
 4916               	.LCFI179:
 4917               		.cfi_def_cfa_offset 4
 4918               		.cfi_offset 5, -3
 4919 1524 6F92      		push r6
 4920               	.LCFI180:
 4921               		.cfi_def_cfa_offset 5
 4922               		.cfi_offset 6, -4
 4923 1526 7F92      		push r7
 4924               	.LCFI181:
 4925               		.cfi_def_cfa_offset 6
 4926               		.cfi_offset 7, -5
 4927 1528 8F92      		push r8
 4928               	.LCFI182:
 4929               		.cfi_def_cfa_offset 7
 4930               		.cfi_offset 8, -6
 4931 152a 9F92      		push r9
 4932               	.LCFI183:
 4933               		.cfi_def_cfa_offset 8
 4934               		.cfi_offset 9, -7
 4935 152c AF92      		push r10
 4936               	.LCFI184:
 4937               		.cfi_def_cfa_offset 9
 4938               		.cfi_offset 10, -8
 4939 152e BF92      		push r11
 4940               	.LCFI185:
 4941               		.cfi_def_cfa_offset 10
 4942               		.cfi_offset 11, -9
 4943 1530 FF92      		push r15
 4944               	.LCFI186:
 4945               		.cfi_def_cfa_offset 11
 4946               		.cfi_offset 15, -10
 4947 1532 0F93      		push r16
 4948               	.LCFI187:
 4949               		.cfi_def_cfa_offset 12
 4950               		.cfi_offset 16, -11
 4951 1534 1F93      		push r17
 4952               	.LCFI188:
 4953               		.cfi_def_cfa_offset 13
 4954               		.cfi_offset 17, -12
 4955 1536 CF93      		push r28
 4956               	.LCFI189:
 4957               		.cfi_def_cfa_offset 14
 4958               		.cfi_offset 28, -13
 4959 1538 DF93      		push r29
 4960               	.LCFI190:
 4961               		.cfi_def_cfa_offset 15
 4962               		.cfi_offset 29, -14
 4963               	/* prologue: function */
 4964               	/* frame size = 0 */
 4965               	/* stack size = 13 */
 4966               	.L__stack_usage = 13
 4967 153a 4B01      		movw r8,r22
 4968 153c 5C01      		movw r10,r24
 4969 153e 2901      		movw r4,r18
 4970 1540 3A01      		movw r6,r20
 4971 1542 E801      		movw r28,r16
 4972               	.LVL372:
 4973 1544 F801      		movw r30,r16
 4974 1546 C801      		movw r24,r16
 4975 1548 0896      		adiw r24,8
 4976               	.LVL373:
 4977               	.L488:
 4978               	.LBB81:
  18:../../../Resources_V12/Subroutines/Arithmetic.c **** 
 4979               		.loc 3 18 0 discriminator 3
 4980 154a 1192      		st Z+,__zero_reg__
 4981               	.LVL374:
 4982 154c E817      		cp r30,r24
 4983 154e F907      		cpc r31,r25
 4984 1550 01F4      		brne .L488
 4985               	.LBE81:
  20:../../../Resources_V12/Subroutines/Arithmetic.c **** digits[6] = '_';
 4986               		.loc 3 20 0
 4987 1552 80E3      		ldi r24,lo8(48)
 4988 1554 8F83      		std Y+7,r24
  21:../../../Resources_V12/Subroutines/Arithmetic.c **** String_to_PC("0.");
 4989               		.loc 3 21 0
 4990 1556 8FE5      		ldi r24,lo8(95)
 4991 1558 8E83      		std Y+6,r24
  22:../../../Resources_V12/Subroutines/Arithmetic.c **** 
 4992               		.loc 3 22 0
 4993 155a 80E0      		ldi r24,lo8(.LC3)
 4994 155c 90E0      		ldi r25,hi8(.LC3)
 4995 155e 0E94 0000 		call String_to_PC
 4996               	.LVL375:
  16:../../../Resources_V12/Subroutines/Arithmetic.c **** 
 4997               		.loc 3 16 0
 4998 1562 06E0      		ldi r16,lo8(6)
 4999 1564 10E0      		ldi r17,0
 5000               	.LVL376:
 5001               	.L489:
  24:../../../Resources_V12/Subroutines/Arithmetic.c **** digit = (remainder *10/denominator);
 5002               		.loc 3 24 0
 5003 1566 1E9B      		sbis 0x3,6
 5004 1568 00C0      		rjmp .L496
  25:../../../Resources_V12/Subroutines/Arithmetic.c **** remainder = ((remainder *10)%denominator);
 5005               		.loc 3 25 0
 5006 156a AAE0      		ldi r26,lo8(10)
 5007 156c B0E0      		ldi r27,0
 5008 156e A501      		movw r20,r10
 5009 1570 9401      		movw r18,r8
 5010 1572 0E94 0000 		call __muluhisi3
 5011               	.LVL377:
  26:../../../Resources_V12/Subroutines/Arithmetic.c **** 
 5012               		.loc 3 26 0
 5013 1576 A301      		movw r20,r6
 5014 1578 9201      		movw r18,r4
 5015 157a 0E94 0000 		call __divmodsi4
 5016               	.LVL378:
 5017 157e 4B01      		movw r8,r22
 5018 1580 5C01      		movw r10,r24
 5019               	.LVL379:
  28:../../../Resources_V12/Subroutines/Arithmetic.c **** if(m){digits[m-1] = (digit+'0');m--;I2C_Tx_8_byte_array(digits);Timer_T0_10mS_delay_x_m(12);}
 5020               		.loc 3 28 0
 5021 1582 80E3      		ldi r24,lo8(48)
 5022 1584 F82E      		mov r15,r24
 5023 1586 F20E      		add r15,r18
 5024 1588 8F2D      		mov r24,r15
 5025 158a 0E94 0000 		call Char_to_PC
 5026               	.LVL380:
  29:../../../Resources_V12/Subroutines/Arithmetic.c **** Timer_T0_10mS_delay_x_m(6);}}
 5027               		.loc 3 29 0
 5028 158e 0115      		cp r16,__zero_reg__
 5029 1590 1105      		cpc r17,__zero_reg__
 5030 1592 01F0      		breq .L490
  29:../../../Resources_V12/Subroutines/Arithmetic.c **** Timer_T0_10mS_delay_x_m(6);}}
 5031               		.loc 3 29 0 is_stmt 0 discriminator 1
 5032 1594 FE01      		movw r30,r28
 5033 1596 E00F      		add r30,r16
 5034 1598 F11F      		adc r31,r17
 5035 159a 3197      		sbiw r30,1
 5036 159c F082      		st Z,r15
 5037 159e 0150      		subi r16,1
 5038 15a0 1109      		sbc r17,__zero_reg__
 5039               	.LVL381:
 5040 15a2 CE01      		movw r24,r28
 5041 15a4 0E94 0000 		call I2C_Tx_8_byte_array
 5042               	.LVL382:
 5043 15a8 8CE0      		ldi r24,lo8(12)
 5044 15aa 90E0      		ldi r25,0
 5045 15ac 0E94 0000 		call Timer_T0_10mS_delay_x_m
 5046               	.LVL383:
 5047               	.L490:
  30:../../../Resources_V12/Subroutines/Arithmetic.c **** 
 5048               		.loc 3 30 0 is_stmt 1
 5049 15b0 86E0      		ldi r24,lo8(6)
 5050 15b2 90E0      		ldi r25,0
 5051 15b4 0E94 0000 		call Timer_T0_10mS_delay_x_m
 5052               	.LVL384:
 5053 15b8 00C0      		rjmp .L489
 5054               	.LVL385:
 5055               	.L496:
 5056               	/* epilogue start */
 5057 15ba DF91      		pop r29
 5058 15bc CF91      		pop r28
 5059               	.LVL386:
 5060 15be 1F91      		pop r17
 5061 15c0 0F91      		pop r16
 5062               	.LVL387:
 5063 15c2 FF90      		pop r15
 5064 15c4 BF90      		pop r11
 5065 15c6 AF90      		pop r10
 5066 15c8 9F90      		pop r9
 5067 15ca 8F90      		pop r8
 5068               	.LVL388:
 5069 15cc 7F90      		pop r7
 5070 15ce 6F90      		pop r6
 5071 15d0 5F90      		pop r5
 5072 15d2 4F90      		pop r4
 5073               	.LVL389:
 5074 15d4 0895      		ret
 5075               		.cfi_endproc
 5076               	.LFE53:
 5078               	.global	I2C_Tx_BWops
 5080               	I2C_Tx_BWops:
 5081               	.LFB17:
  69:../../../Resources_V12/I2C_Subroutines/I2C_subroutines_1.c **** char num_bytes=8;
 5082               		.loc 6 69 0
 5083               		.cfi_startproc
 5084               	.LVL390:
 5085               	/* prologue: function */
 5086               	/* frame size = 0 */
 5087               	/* stack size = 0 */
 5088               	.L__stack_usage = 0
  72:../../../Resources_V12/I2C_Subroutines/I2C_subroutines_1.c **** 
 5089               		.loc 6 72 0
 5090 15d6 AC01      		movw r20,r24
 5091 15d8 67E4      		ldi r22,lo8(71)
 5092 15da 88E0      		ldi r24,lo8(8)
 5093               	.LVL391:
 5094 15dc 0C94 0000 		jmp I2C_Tx
 5095               	.LVL392:
 5096               		.cfi_endproc
 5097               	.LFE17:
 5099               	.global	binary_char_from_KBD
 5101               	binary_char_from_KBD:
 5102               	.LFB62:
 110:../../../Resources_V12/Subroutines/Integers_to_from_PC.c **** 
 111:../../../Resources_V12/Subroutines/Integers_to_from_PC.c **** 
 112:../../../Resources_V12/Subroutines/Integers_to_from_PC.c **** 
 113:../../../Resources_V12/Subroutines/Integers_to_from_PC.c **** /*******************************************************************************/
 114:../../../Resources_V12/Subroutines/Integers_to_from_PC.c **** char binary_char_from_KBD(void){
 5103               		.loc 4 114 0
 5104               		.cfi_startproc
 5105 15e0 FF92      		push r15
 5106               	.LCFI191:
 5107               		.cfi_def_cfa_offset 3
 5108               		.cfi_offset 15, -2
 5109 15e2 0F93      		push r16
 5110               	.LCFI192:
 5111               		.cfi_def_cfa_offset 4
 5112               		.cfi_offset 16, -3
 5113 15e4 1F93      		push r17
 5114               	.LCFI193:
 5115               		.cfi_def_cfa_offset 5
 5116               		.cfi_offset 17, -4
 5117 15e6 CF93      		push r28
 5118               	.LCFI194:
 5119               		.cfi_def_cfa_offset 6
 5120               		.cfi_offset 28, -5
 5121 15e8 DF93      		push r29
 5122               	.LCFI195:
 5123               		.cfi_def_cfa_offset 7
 5124               		.cfi_offset 29, -6
 5125 15ea CDB7      		in r28,__SP_L__
 5126 15ec DEB7      		in r29,__SP_H__
 5127               	.LCFI196:
 5128               		.cfi_def_cfa_register 28
 5129 15ee 2897      		sbiw r28,8
 5130               	.LCFI197:
 5131               		.cfi_def_cfa_offset 15
 5132 15f0 0FB6      		in __tmp_reg__,__SREG__
 5133 15f2 F894      		cli
 5134 15f4 DEBF      		out __SP_H__,r29
 5135 15f6 0FBE      		out __SREG__,__tmp_reg__
 5136 15f8 CDBF      		out __SP_L__,r28
 5137               	/* prologue: function */
 5138               	/* frame size = 8 */
 5139               	/* stack size = 13 */
 5140               	.L__stack_usage = 13
 5141               	.LVL393:
 5142 15fa FE01      		movw r30,r28
 5143 15fc 3196      		adiw r30,1
 5144 15fe CE01      		movw r24,r28
 5145 1600 0996      		adiw r24,9
 5146 1602 FE2E      		mov r15,r30
 5147 1604 0F2F      		mov r16,r31
 5148               	.LVL394:
 5149               	.L499:
 5150               	.LBB82:
 115:../../../Resources_V12/Subroutines/Integers_to_from_PC.c **** char keypress=0, LSB, array[8];
 116:../../../Resources_V12/Subroutines/Integers_to_from_PC.c **** 
 117:../../../Resources_V12/Subroutines/Integers_to_from_PC.c **** for(int m = 0; m<=7; m++)array[m]=0;
 5151               		.loc 4 117 0 discriminator 3
 5152 1606 1192      		st Z+,__zero_reg__
 5153 1608 8E17      		cp r24,r30
 5154 160a 9F07      		cpc r25,r31
 5155 160c 01F4      		brne .L499
 5156 160e 10E0      		ldi r17,0
 5157               	.LVL395:
 5158               	.L501:
 5159               	.LBE82:
 118:../../../Resources_V12/Subroutines/Integers_to_from_PC.c **** do{
 119:../../../Resources_V12/Subroutines/Integers_to_from_PC.c **** LSB = wait_for_return_key(); 
 5160               		.loc 4 119 0
 5161 1610 0E94 0000 		call wait_for_return_key
 5162               	.LVL396:
 120:../../../Resources_V12/Subroutines/Integers_to_from_PC.c **** if (LSB == '\r')break;
 5163               		.loc 4 120 0
 5164 1614 8D30      		cpi r24,lo8(13)
 5165 1616 01F0      		breq .L500
 121:../../../Resources_V12/Subroutines/Integers_to_from_PC.c **** if((LSB != '0') && (LSB != '1'));
 5166               		.loc 4 121 0
 5167 1618 90ED      		ldi r25,lo8(-48)
 5168 161a 980F      		add r25,r24
 5169 161c 9230      		cpi r25,lo8(2)
 5170 161e 00F4      		brsh .L501
 5171 1620 110F      		lsl r17
 5172               	.LVL397:
 5173 1622 1053      		subi r17,lo8(-(-48))
 122:../../../Resources_V12/Subroutines/Integers_to_from_PC.c **** 
 123:../../../Resources_V12/Subroutines/Integers_to_from_PC.c **** else {keypress = (keypress << 1) + LSB - '0';
 5174               		.loc 4 123 0
 5175 1624 180F      		add r17,r24
 5176               	.LVL398:
 124:../../../Resources_V12/Subroutines/Integers_to_from_PC.c **** array[0] = keypress;
 5177               		.loc 4 124 0
 5178 1626 1983      		std Y+1,r17
 125:../../../Resources_V12/Subroutines/Integers_to_from_PC.c **** I2C_Tx_BWops(array);
 5179               		.loc 4 125 0
 5180 1628 8F2D      		mov r24,r15
 5181               	.LVL399:
 5182 162a 902F      		mov r25,r16
 5183 162c 0E94 0000 		call I2C_Tx_BWops
 5184               	.LVL400:
 5185 1630 00C0      		rjmp .L501
 5186               	.LVL401:
 5187               	.L500:
 126:../../../Resources_V12/Subroutines/Integers_to_from_PC.c **** }} while(1);
 127:../../../Resources_V12/Subroutines/Integers_to_from_PC.c **** return keypress;}
 5188               		.loc 4 127 0
 5189 1632 812F      		mov r24,r17
 5190               	.LVL402:
 5191               	/* epilogue start */
 5192 1634 2896      		adiw r28,8
 5193 1636 0FB6      		in __tmp_reg__,__SREG__
 5194 1638 F894      		cli
 5195 163a DEBF      		out __SP_H__,r29
 5196 163c 0FBE      		out __SREG__,__tmp_reg__
 5197 163e CDBF      		out __SP_L__,r28
 5198 1640 DF91      		pop r29
 5199 1642 CF91      		pop r28
 5200 1644 1F91      		pop r17
 5201               	.LVL403:
 5202 1646 0F91      		pop r16
 5203 1648 FF90      		pop r15
 5204 164a 0895      		ret
 5205               		.cfi_endproc
 5206               	.LFE62:
 5208               	.global	I2C_Tx_OS_timer
 5210               	I2C_Tx_OS_timer:
 5211               	.LFB18:
  76:../../../Resources_V12/I2C_Subroutines/I2C_subroutines_1.c **** char num_bytes=8;
 5212               		.loc 6 76 0
 5213               		.cfi_startproc
 5214               	.LVL404:
 5215               	/* prologue: function */
 5216               	/* frame size = 0 */
 5217               	/* stack size = 0 */
 5218               	.L__stack_usage = 0
 5219 164c AB01      		movw r20,r22
 5220               	.LVL405:
  78:../../../Resources_V12/I2C_Subroutines/I2C_subroutines_1.c **** 
 5221               		.loc 6 78 0
 5222 164e 682F      		mov r22,r24
 5223               	.LVL406:
 5224 1650 88E0      		ldi r24,lo8(8)
 5225               	.LVL407:
 5226 1652 0C94 0000 		jmp I2C_Tx
 5227               	.LVL408:
 5228               		.cfi_endproc
 5229               	.LFE18:
 5231               	.global	I2C_Tx_8_byte_array_plus_mode
 5233               	I2C_Tx_8_byte_array_plus_mode:
 5234               	.LFB78:
 5235               		.cfi_startproc
 5236               	/* prologue: function */
 5237               	/* frame size = 0 */
 5238               	/* stack size = 0 */
 5239               	.L__stack_usage = 0
 5240 1656 0C94 0000 		jmp I2C_Tx_OS_timer
 5241               		.cfi_endproc
 5242               	.LFE78:
 5244               	.global	I2C_Tx_Clock_command
 5246               	I2C_Tx_Clock_command:
 5247               	.LFB19:
  81:../../../Resources_V12/I2C_Subroutines/I2C_subroutines_1.c **** char s[2]; char num_bytes=1;
 5248               		.loc 6 81 0
 5249               		.cfi_startproc
 5250               	.LVL409:
  81:../../../Resources_V12/I2C_Subroutines/I2C_subroutines_1.c **** char s[2]; char num_bytes=1;
 5251               		.loc 6 81 0
 5252 165a CF93      		push r28
 5253               	.LCFI198:
 5254               		.cfi_def_cfa_offset 3
 5255               		.cfi_offset 28, -2
 5256 165c DF93      		push r29
 5257               	.LCFI199:
 5258               		.cfi_def_cfa_offset 4
 5259               		.cfi_offset 29, -3
 5260 165e 00D0      		rcall .
 5261               	.LCFI200:
 5262               		.cfi_def_cfa_offset 6
 5263 1660 CDB7      		in r28,__SP_L__
 5264 1662 DEB7      		in r29,__SP_H__
 5265               	.LCFI201:
 5266               		.cfi_def_cfa_register 28
 5267               	/* prologue: function */
 5268               	/* frame size = 2 */
 5269               	/* stack size = 4 */
 5270               	.L__stack_usage = 4
 5271               	.LVL410:
  83:../../../Resources_V12/I2C_Subroutines/I2C_subroutines_1.c **** I2C_Tx(num_bytes, timer_mode, s);}
 5272               		.loc 6 83 0
 5273 1664 6983      		std Y+1,r22
  84:../../../Resources_V12/I2C_Subroutines/I2C_subroutines_1.c **** 
 5274               		.loc 6 84 0
 5275 1666 AE01      		movw r20,r28
 5276 1668 4F5F      		subi r20,-1
 5277 166a 5F4F      		sbci r21,-1
 5278 166c 682F      		mov r22,r24
 5279               	.LVL411:
 5280 166e 81E0      		ldi r24,lo8(1)
 5281               	.LVL412:
 5282 1670 0E94 0000 		call I2C_Tx
 5283               	.LVL413:
 5284               	/* epilogue start */
 5285 1674 0F90      		pop __tmp_reg__
 5286 1676 0F90      		pop __tmp_reg__
 5287 1678 DF91      		pop r29
 5288 167a CF91      		pop r28
 5289 167c 0895      		ret
 5290               		.cfi_endproc
 5291               	.LFE19:
 5293               	.global	I2C_Tx_display_char
 5295               	I2C_Tx_display_char:
 5296               	.LFB20:
  87:../../../Resources_V12/I2C_Subroutines/I2C_subroutines_1.c **** char s[2]; char num_bytes=2; char mode = 5;
 5297               		.loc 6 87 0
 5298               		.cfi_startproc
 5299               	.LVL414:
 5300 167e CF93      		push r28
 5301               	.LCFI202:
 5302               		.cfi_def_cfa_offset 3
 5303               		.cfi_offset 28, -2
 5304 1680 DF93      		push r29
 5305               	.LCFI203:
 5306               		.cfi_def_cfa_offset 4
 5307               		.cfi_offset 29, -3
 5308 1682 00D0      		rcall .
 5309               	.LCFI204:
 5310               		.cfi_def_cfa_offset 6
 5311 1684 CDB7      		in r28,__SP_L__
 5312 1686 DEB7      		in r29,__SP_H__
 5313               	.LCFI205:
 5314               		.cfi_def_cfa_register 28
 5315               	/* prologue: function */
 5316               	/* frame size = 2 */
 5317               	/* stack size = 4 */
 5318               	.L__stack_usage = 4
 5319               	.LVL415:
  89:../../../Resources_V12/I2C_Subroutines/I2C_subroutines_1.c **** s[1] = sign_bit;
 5320               		.loc 6 89 0
 5321 1688 8983      		std Y+1,r24
  90:../../../Resources_V12/I2C_Subroutines/I2C_subroutines_1.c **** I2C_Tx(num_bytes, mode, s);}
 5322               		.loc 6 90 0
 5323 168a 6A83      		std Y+2,r22
  91:../../../Resources_V12/I2C_Subroutines/I2C_subroutines_1.c **** 
 5324               		.loc 6 91 0
 5325 168c AE01      		movw r20,r28
 5326 168e 4F5F      		subi r20,-1
 5327 1690 5F4F      		sbci r21,-1
 5328 1692 65E0      		ldi r22,lo8(5)
 5329               	.LVL416:
 5330 1694 82E0      		ldi r24,lo8(2)
 5331               	.LVL417:
 5332 1696 0E94 0000 		call I2C_Tx
 5333               	.LVL418:
 5334               	/* epilogue start */
 5335 169a 0F90      		pop __tmp_reg__
 5336 169c 0F90      		pop __tmp_reg__
 5337 169e DF91      		pop r29
 5338 16a0 CF91      		pop r28
 5339 16a2 0895      		ret
 5340               		.cfi_endproc
 5341               	.LFE20:
 5343               	.global	I2C_Tx_2_chars
 5345               	I2C_Tx_2_chars:
 5346               	.LFB21:
  95:../../../Resources_V12/I2C_Subroutines/I2C_subroutines_1.c **** char s[2]; char num_bytes=2;
 5347               		.loc 6 95 0
 5348               		.cfi_startproc
 5349               	.LVL419:
 5350 16a4 CF93      		push r28
 5351               	.LCFI206:
 5352               		.cfi_def_cfa_offset 3
 5353               		.cfi_offset 28, -2
 5354 16a6 DF93      		push r29
 5355               	.LCFI207:
 5356               		.cfi_def_cfa_offset 4
 5357               		.cfi_offset 29, -3
 5358 16a8 00D0      		rcall .
 5359               	.LCFI208:
 5360               		.cfi_def_cfa_offset 6
 5361 16aa CDB7      		in r28,__SP_L__
 5362 16ac DEB7      		in r29,__SP_H__
 5363               	.LCFI209:
 5364               		.cfi_def_cfa_register 28
 5365               	/* prologue: function */
 5366               	/* frame size = 2 */
 5367               	/* stack size = 4 */
 5368               	.L__stack_usage = 4
 5369               	.LVL420:
 5370               	.LBB83:
  99:../../../Resources_V12/I2C_Subroutines/I2C_subroutines_1.c **** case 1: s[m] = digit_num; break;}}
 5371               		.loc 6 99 0
 5372 16ae 6983      		std Y+1,r22
 5373               	.LVL421:
 100:../../../Resources_V12/I2C_Subroutines/I2C_subroutines_1.c **** I2C_Tx(num_bytes,mode, s);}
 5374               		.loc 6 100 0
 5375 16b0 4A83      		std Y+2,r20
 5376               	.LVL422:
 5377               	.LBE83:
 101:../../../Resources_V12/I2C_Subroutines/I2C_subroutines_1.c **** 
 5378               		.loc 6 101 0
 5379 16b2 AE01      		movw r20,r28
 5380               	.LVL423:
 5381 16b4 4F5F      		subi r20,-1
 5382 16b6 5F4F      		sbci r21,-1
 5383 16b8 682F      		mov r22,r24
 5384               	.LVL424:
 5385 16ba 82E0      		ldi r24,lo8(2)
 5386               	.LVL425:
 5387 16bc 0E94 0000 		call I2C_Tx
 5388               	.LVL426:
 5389               	/* epilogue start */
 5390 16c0 0F90      		pop __tmp_reg__
 5391 16c2 0F90      		pop __tmp_reg__
 5392 16c4 DF91      		pop r29
 5393 16c6 CF91      		pop r28
 5394 16c8 0895      		ret
 5395               		.cfi_endproc
 5396               	.LFE21:
 5398               	.global	I2C_Tx_LED_dimmer
 5400               	I2C_Tx_LED_dimmer:
 5401               	.LFB23:
 116:../../../Resources_V12/I2C_Subroutines/I2C_subroutines_1.c **** 
 117:../../../Resources_V12/I2C_Subroutines/I2C_subroutines_1.c **** 
 118:../../../Resources_V12/I2C_Subroutines/I2C_subroutines_1.c **** /************************************************************************/
 119:../../../Resources_V12/I2C_Subroutines/I2C_subroutines_1.c **** void I2C_Tx_LED_dimmer(void){
 5402               		.loc 6 119 0
 5403               		.cfi_startproc
 5404 16ca CF93      		push r28
 5405               	.LCFI210:
 5406               		.cfi_def_cfa_offset 3
 5407               		.cfi_offset 28, -2
 5408 16cc DF93      		push r29
 5409               	.LCFI211:
 5410               		.cfi_def_cfa_offset 4
 5411               		.cfi_offset 29, -3
 5412 16ce 1F92      		push __zero_reg__
 5413               	.LCFI212:
 5414               		.cfi_def_cfa_offset 5
 5415 16d0 CDB7      		in r28,__SP_L__
 5416 16d2 DEB7      		in r29,__SP_H__
 5417               	.LCFI213:
 5418               		.cfi_def_cfa_register 28
 5419               	/* prologue: function */
 5420               	/* frame size = 1 */
 5421               	/* stack size = 3 */
 5422               	.L__stack_usage = 3
 120:../../../Resources_V12/I2C_Subroutines/I2C_subroutines_1.c **** char Dimmer_control;
 121:../../../Resources_V12/I2C_Subroutines/I2C_subroutines_1.c **** 
 122:../../../Resources_V12/I2C_Subroutines/I2C_subroutines_1.c **** if((PINB & 0x40)^0x40)Dimmer_control = 1;			//if Switch_2 down
 5423               		.loc 6 122 0
 5424 16d4 1E99      		sbic 0x3,6
 5425 16d6 00C0      		rjmp .L511
 5426               		.loc 6 122 0 is_stmt 0 discriminator 1
 5427 16d8 81E0      		ldi r24,lo8(1)
 5428 16da 8983      		std Y+1,r24
 5429 16dc 00C0      		rjmp .L512
 5430               	.L511:
 123:../../../Resources_V12/I2C_Subroutines/I2C_subroutines_1.c **** else Dimmer_control = 0;							//Normal operation
 5431               		.loc 6 123 0 is_stmt 1
 5432 16de 1982      		std Y+1,__zero_reg__
 5433               	.L512:
 124:../../../Resources_V12/I2C_Subroutines/I2C_subroutines_1.c **** 
 125:../../../Resources_V12/I2C_Subroutines/I2C_subroutines_1.c **** I2C_Tx(1, 'Q', &Dimmer_control);}	
 5434               		.loc 6 125 0
 5435 16e0 AE01      		movw r20,r28
 5436 16e2 4F5F      		subi r20,-1
 5437 16e4 5F4F      		sbci r21,-1
 5438 16e6 61E5      		ldi r22,lo8(81)
 5439 16e8 81E0      		ldi r24,lo8(1)
 5440 16ea 0E94 0000 		call I2C_Tx
 5441               	.LVL427:
 5442               	/* epilogue start */
 5443 16ee 0F90      		pop __tmp_reg__
 5444 16f0 DF91      		pop r29
 5445 16f2 CF91      		pop r28
 5446 16f4 0895      		ret
 5447               		.cfi_endproc
 5448               	.LFE23:
 5450               	.global	I2C_Tx_long
 5452               	I2C_Tx_long:
 5453               	.LFB24:
  30:../../../Resources_V12/I2C_Subroutines/I2C_subroutines_2.c **** char s[4];
 5454               		.loc 7 30 0
 5455               		.cfi_startproc
 5456               	.LVL428:
 5457 16f6 CF93      		push r28
 5458               	.LCFI214:
 5459               		.cfi_def_cfa_offset 3
 5460               		.cfi_offset 28, -2
 5461 16f8 DF93      		push r29
 5462               	.LCFI215:
 5463               		.cfi_def_cfa_offset 4
 5464               		.cfi_offset 29, -3
 5465 16fa 00D0      		rcall .
 5466 16fc 00D0      		rcall .
 5467               	.LCFI216:
 5468               		.cfi_def_cfa_offset 8
 5469 16fe CDB7      		in r28,__SP_L__
 5470 1700 DEB7      		in r29,__SP_H__
 5471               	.LCFI217:
 5472               		.cfi_def_cfa_register 28
 5473               	/* prologue: function */
 5474               	/* frame size = 4 */
 5475               	/* stack size = 6 */
 5476               	.L__stack_usage = 6
 5477               	.LVL429:
 5478               	.LBB84:
  33:../../../Resources_V12/I2C_Subroutines/I2C_subroutines_2.c **** I2C_Tx(num_bytes,mode, s);}
 5479               		.loc 7 33 0
 5480 1702 9983      		std Y+1,r25
 5481               	.LVL430:
 5482 1704 8A83      		std Y+2,r24
 5483               	.LVL431:
 5484 1706 7B83      		std Y+3,r23
 5485               	.LVL432:
 5486 1708 6C83      		std Y+4,r22
 5487               	.LVL433:
 5488               	.LBE84:
  34:../../../Resources_V12/I2C_Subroutines/I2C_subroutines_2.c **** 
 5489               		.loc 7 34 0
 5490 170a AE01      		movw r20,r28
 5491 170c 4F5F      		subi r20,-1
 5492 170e 5F4F      		sbci r21,-1
 5493 1710 66E0      		ldi r22,lo8(6)
 5494               	.LVL434:
 5495 1712 84E0      		ldi r24,lo8(4)
 5496 1714 0E94 0000 		call I2C_Tx
 5497               	.LVL435:
 5498               	/* epilogue start */
 5499 1718 0F90      		pop __tmp_reg__
 5500 171a 0F90      		pop __tmp_reg__
 5501 171c 0F90      		pop __tmp_reg__
 5502 171e 0F90      		pop __tmp_reg__
 5503 1720 DF91      		pop r29
 5504 1722 CF91      		pop r28
 5505 1724 0895      		ret
 5506               		.cfi_endproc
 5507               	.LFE24:
 5509               	.global	I2C_Tx_real_num
 5511               	I2C_Tx_real_num:
 5512               	.LFB25:
  38:../../../Resources_V12/I2C_Subroutines/I2C_subroutines_2.c **** char s[4];
 5513               		.loc 7 38 0
 5514               		.cfi_startproc
 5515               	.LVL436:
 5516 1726 CF93      		push r28
 5517               	.LCFI218:
 5518               		.cfi_def_cfa_offset 3
 5519               		.cfi_offset 28, -2
 5520 1728 DF93      		push r29
 5521               	.LCFI219:
 5522               		.cfi_def_cfa_offset 4
 5523               		.cfi_offset 29, -3
 5524 172a 00D0      		rcall .
 5525 172c 00D0      		rcall .
 5526               	.LCFI220:
 5527               		.cfi_def_cfa_offset 8
 5528 172e CDB7      		in r28,__SP_L__
 5529 1730 DEB7      		in r29,__SP_H__
 5530               	.LCFI221:
 5531               		.cfi_def_cfa_register 28
 5532               	/* prologue: function */
 5533               	/* frame size = 4 */
 5534               	/* stack size = 6 */
 5535               	.L__stack_usage = 6
 5536               	.LVL437:
 5537               	.LBB85:
  41:../../../Resources_V12/I2C_Subroutines/I2C_subroutines_2.c **** I2C_Tx(num_bytes,mode, s);}
 5538               		.loc 7 41 0
 5539 1732 9983      		std Y+1,r25
 5540               	.LVL438:
 5541 1734 8A83      		std Y+2,r24
 5542               	.LVL439:
 5543 1736 7B83      		std Y+3,r23
 5544               	.LVL440:
 5545 1738 6C83      		std Y+4,r22
 5546               	.LVL441:
 5547               	.LBE85:
  42:../../../Resources_V12/I2C_Subroutines/I2C_subroutines_2.c **** 
 5548               		.loc 7 42 0
 5549 173a AE01      		movw r20,r28
 5550 173c 4F5F      		subi r20,-1
 5551 173e 5F4F      		sbci r21,-1
 5552 1740 6AE4      		ldi r22,lo8(74)
 5553               	.LVL442:
 5554 1742 84E0      		ldi r24,lo8(4)
 5555 1744 0E94 0000 		call I2C_Tx
 5556               	.LVL443:
 5557               	/* epilogue start */
 5558 1748 0F90      		pop __tmp_reg__
 5559 174a 0F90      		pop __tmp_reg__
 5560 174c 0F90      		pop __tmp_reg__
 5561 174e 0F90      		pop __tmp_reg__
 5562 1750 DF91      		pop r29
 5563 1752 CF91      		pop r28
 5564 1754 0895      		ret
 5565               		.cfi_endproc
 5566               	.LFE25:
 5568               	.global	I2C_Tx_float_num
 5570               	I2C_Tx_float_num:
 5571               	.LFB26:
  45:../../../Resources_V12/I2C_Subroutines/I2C_subroutines_2.c **** char s[5];
 5572               		.loc 7 45 0
 5573               		.cfi_startproc
 5574               	.LVL444:
 5575 1756 CF93      		push r28
 5576               	.LCFI222:
 5577               		.cfi_def_cfa_offset 3
 5578               		.cfi_offset 28, -2
 5579 1758 DF93      		push r29
 5580               	.LCFI223:
 5581               		.cfi_def_cfa_offset 4
 5582               		.cfi_offset 29, -3
 5583 175a 00D0      		rcall .
 5584 175c 00D0      		rcall .
 5585 175e 1F92      		push __zero_reg__
 5586               	.LCFI224:
 5587               		.cfi_def_cfa_offset 9
 5588 1760 CDB7      		in r28,__SP_L__
 5589 1762 DEB7      		in r29,__SP_H__
 5590               	.LCFI225:
 5591               		.cfi_def_cfa_register 28
 5592               	/* prologue: function */
 5593               	/* frame size = 5 */
 5594               	/* stack size = 7 */
 5595               	.L__stack_usage = 7
 5596               	.LVL445:
 5597               	.LBB86:
  48:../../../Resources_V12/I2C_Subroutines/I2C_subroutines_2.c **** s[4] = expnt;
 5598               		.loc 7 48 0
 5599 1764 9983      		std Y+1,r25
 5600               	.LVL446:
 5601 1766 8A83      		std Y+2,r24
 5602               	.LVL447:
 5603 1768 7B83      		std Y+3,r23
 5604               	.LVL448:
 5605 176a 6C83      		std Y+4,r22
 5606               	.LVL449:
 5607               	.LBE86:
  49:../../../Resources_V12/I2C_Subroutines/I2C_subroutines_2.c **** I2C_Tx(num_bytes,mode, s);}
 5608               		.loc 7 49 0
 5609 176c 4D83      		std Y+5,r20
  50:../../../Resources_V12/I2C_Subroutines/I2C_subroutines_2.c **** 
 5610               		.loc 7 50 0
 5611 176e AE01      		movw r20,r28
 5612               	.LVL450:
 5613 1770 4F5F      		subi r20,-1
 5614 1772 5F4F      		sbci r21,-1
 5615 1774 6BE4      		ldi r22,lo8(75)
 5616               	.LVL451:
 5617 1776 85E0      		ldi r24,lo8(5)
 5618 1778 0E94 0000 		call I2C_Tx
 5619               	.LVL452:
 5620               	/* epilogue start */
 5621 177c 0F90      		pop __tmp_reg__
 5622 177e 0F90      		pop __tmp_reg__
 5623 1780 0F90      		pop __tmp_reg__
 5624 1782 0F90      		pop __tmp_reg__
 5625 1784 0F90      		pop __tmp_reg__
 5626 1786 DF91      		pop r29
 5627 1788 CF91      		pop r28
 5628 178a 0895      		ret
 5629               		.cfi_endproc
 5630               	.LFE26:
 5632               	.global	I2C_Tx_Initiate_tables
 5634               	I2C_Tx_Initiate_tables:
 5635               	.LFB29:
  67:../../../Resources_V12/I2C_Subroutines/I2C_subroutines_2.c **** 
  68:../../../Resources_V12/I2C_Subroutines/I2C_subroutines_2.c **** /************************************************************************/
  69:../../../Resources_V12/I2C_Subroutines/I2C_subroutines_2.c **** long I2C_displayToNum(void){		
  70:../../../Resources_V12/I2C_Subroutines/I2C_subroutines_2.c **** long L_number = 0;
  71:../../../Resources_V12/I2C_Subroutines/I2C_subroutines_2.c **** char receive_byte;
  72:../../../Resources_V12/I2C_Subroutines/I2C_subroutines_2.c **** char num_bytes=0;
  73:../../../Resources_V12/I2C_Subroutines/I2C_subroutines_2.c **** char mode = 'I';
  74:../../../Resources_V12/I2C_Subroutines/I2C_subroutines_2.c **** 
  75:../../../Resources_V12/I2C_Subroutines/I2C_subroutines_2.c **** waiting_for_I2C_master;		
  76:../../../Resources_V12/I2C_Subroutines/I2C_subroutines_2.c **** send_byte_with_Ack(num_bytes);
  77:../../../Resources_V12/I2C_Subroutines/I2C_subroutines_2.c **** send_byte_with_Nack(mode);
  78:../../../Resources_V12/I2C_Subroutines/I2C_subroutines_2.c **** TWCR = (1 << TWINT) | (1 << TWEN);			//clear interrupt and leave I2C active
  79:../../../Resources_V12/I2C_Subroutines/I2C_subroutines_2.c **** waiting_for_I2C_master;
  80:../../../Resources_V12/I2C_Subroutines/I2C_subroutines_2.c **** 
  81:../../../Resources_V12/I2C_Subroutines/I2C_subroutines_2.c **** for (int m = 0; m<=3; m++){				//Receive 4 chars and assemble into unsigned long result
  82:../../../Resources_V12/I2C_Subroutines/I2C_subroutines_2.c **** if (m ==3){receive_byte = receive_byte_with_Nack();}
  83:../../../Resources_V12/I2C_Subroutines/I2C_subroutines_2.c **** else {receive_byte = receive_byte_with_Ack();}
  84:../../../Resources_V12/I2C_Subroutines/I2C_subroutines_2.c **** switch(m){
  85:../../../Resources_V12/I2C_Subroutines/I2C_subroutines_2.c **** case 0: case 1: case 2:L_number =  L_number + receive_byte; 
  86:../../../Resources_V12/I2C_Subroutines/I2C_subroutines_2.c **** L_number = L_number << 8; break;
  87:../../../Resources_V12/I2C_Subroutines/I2C_subroutines_2.c **** case 3: L_number =  L_number + receive_byte; break;}}
  88:../../../Resources_V12/I2C_Subroutines/I2C_subroutines_2.c **** clear_I2C_interrupt;
  89:../../../Resources_V12/I2C_Subroutines/I2C_subroutines_2.c **** return L_number;}
  90:../../../Resources_V12/I2C_Subroutines/I2C_subroutines_2.c **** 
  91:../../../Resources_V12/I2C_Subroutines/I2C_subroutines_2.c **** 
  92:../../../Resources_V12/I2C_Subroutines/I2C_subroutines_2.c **** /************************************************************************/
  93:../../../Resources_V12/I2C_Subroutines/I2C_subroutines_2.c **** void I2C_Tx_Initiate_tables(char s[]){									//was I2C_Tx_1
 5636               		.loc 7 93 0
 5637               		.cfi_startproc
 5638               	.LVL453:
 5639               	/* prologue: function */
 5640               	/* frame size = 0 */
 5641               	/* stack size = 0 */
 5642               	.L__stack_usage = 0
  94:../../../Resources_V12/I2C_Subroutines/I2C_subroutines_2.c **** char num_bytes=8; char mode=7;
  95:../../../Resources_V12/I2C_Subroutines/I2C_subroutines_2.c **** I2C_Tx(num_bytes,mode, s);}
 5643               		.loc 7 95 0
 5644 178c AC01      		movw r20,r24
 5645 178e 67E0      		ldi r22,lo8(7)
 5646 1790 88E0      		ldi r24,lo8(8)
 5647               	.LVL454:
 5648 1792 0C94 0000 		jmp I2C_Tx
 5649               	.LVL455:
 5650               		.cfi_endproc
 5651               	.LFE29:
 5653               	.global	I2C_Tx_Inc_tables
 5655               	I2C_Tx_Inc_tables:
 5656               	.LFB30:
  96:../../../Resources_V12/I2C_Subroutines/I2C_subroutines_2.c **** 
  97:../../../Resources_V12/I2C_Subroutines/I2C_subroutines_2.c **** /************************************************************************/
  98:../../../Resources_V12/I2C_Subroutines/I2C_subroutines_2.c **** void I2C_Tx_Inc_tables(char s[]){
 5657               		.loc 7 98 0
 5658               		.cfi_startproc
 5659               	.LVL456:
 5660               	/* prologue: function */
 5661               	/* frame size = 0 */
 5662               	/* stack size = 0 */
 5663               	.L__stack_usage = 0
  99:../../../Resources_V12/I2C_Subroutines/I2C_subroutines_2.c **** char num_bytes=8; char mode=7;
 100:../../../Resources_V12/I2C_Subroutines/I2C_subroutines_2.c **** s[7] = '1';
 5664               		.loc 7 100 0
 5665 1796 21E3      		ldi r18,lo8(49)
 5666 1798 FC01      		movw r30,r24
 5667 179a 2783      		std Z+7,r18
 101:../../../Resources_V12/I2C_Subroutines/I2C_subroutines_2.c **** I2C_Tx(num_bytes,mode, s);}
 5668               		.loc 7 101 0
 5669 179c AC01      		movw r20,r24
 5670 179e 67E0      		ldi r22,lo8(7)
 5671 17a0 88E0      		ldi r24,lo8(8)
 5672               	.LVL457:
 5673 17a2 0C94 0000 		jmp I2C_Tx
 5674               	.LVL458:
 5675               		.cfi_endproc
 5676               	.LFE30:
 5678               	.global	I2C_Tx_dec_tables
 5680               	I2C_Tx_dec_tables:
 5681               	.LFB31:
 102:../../../Resources_V12/I2C_Subroutines/I2C_subroutines_2.c **** 
 103:../../../Resources_V12/I2C_Subroutines/I2C_subroutines_2.c **** /************************************************************************/
 104:../../../Resources_V12/I2C_Subroutines/I2C_subroutines_2.c **** void I2C_Tx_dec_tables(char s[]){
 5682               		.loc 7 104 0
 5683               		.cfi_startproc
 5684               	.LVL459:
 5685               	/* prologue: function */
 5686               	/* frame size = 0 */
 5687               	/* stack size = 0 */
 5688               	.L__stack_usage = 0
 105:../../../Resources_V12/I2C_Subroutines/I2C_subroutines_2.c **** char num_bytes=8; char mode=7;
 106:../../../Resources_V12/I2C_Subroutines/I2C_subroutines_2.c **** s[7] = '2';
 5689               		.loc 7 106 0
 5690 17a6 22E3      		ldi r18,lo8(50)
 5691 17a8 FC01      		movw r30,r24
 5692 17aa 2783      		std Z+7,r18
 107:../../../Resources_V12/I2C_Subroutines/I2C_subroutines_2.c **** I2C_Tx(num_bytes,mode, s);}
 5693               		.loc 7 107 0
 5694 17ac AC01      		movw r20,r24
 5695 17ae 67E0      		ldi r22,lo8(7)
 5696 17b0 88E0      		ldi r24,lo8(8)
 5697               	.LVL460:
 5698 17b2 0C94 0000 		jmp I2C_Tx
 5699               	.LVL461:
 5700               		.cfi_endproc
 5701               	.LFE31:
 5703               	.global	I2C_Tx_2URNs_from_IO
 5705               	I2C_Tx_2URNs_from_IO:
 5706               	.LFB33:
 108:../../../Resources_V12/I2C_Subroutines/I2C_subroutines_2.c **** 
 109:../../../Resources_V12/I2C_Subroutines/I2C_subroutines_2.c **** 
 110:../../../Resources_V12/I2C_Subroutines/I2C_subroutines_2.c **** /************************************************************************/
 111:../../../Resources_V12/I2C_Subroutines/I2C_subroutines_2.c **** void I2C_Tx_Uarithmetic_OP(char Op){
 112:../../../Resources_V12/I2C_Subroutines/I2C_subroutines_2.c **** unsigned long RHSofDP; 
 113:../../../Resources_V12/I2C_Subroutines/I2C_subroutines_2.c **** signed char res_exp;
 114:../../../Resources_V12/I2C_Subroutines/I2C_subroutines_2.c **** char num_bytes=1; char mode=9;
 115:../../../Resources_V12/I2C_Subroutines/I2C_subroutines_2.c **** char s[2];
 116:../../../Resources_V12/I2C_Subroutines/I2C_subroutines_2.c **** RHSofDP=0; res_exp=0;
 117:../../../Resources_V12/I2C_Subroutines/I2C_subroutines_2.c **** s[0] = Op;
 118:../../../Resources_V12/I2C_Subroutines/I2C_subroutines_2.c **** I2C_Tx(num_bytes,mode,s);
 119:../../../Resources_V12/I2C_Subroutines/I2C_subroutines_2.c **** if(s[0] == 'A')return;{
 120:../../../Resources_V12/I2C_Subroutines/I2C_subroutines_2.c **** I2C_Rx_RN(&RHSofDP, &res_exp);
 121:../../../Resources_V12/I2C_Subroutines/I2C_subroutines_2.c **** String_to_PC("\r\n0.");Num_to_PC(10,RHSofDP); Exp_to_PC(res_exp);} }
 122:../../../Resources_V12/I2C_Subroutines/I2C_subroutines_2.c **** 
 123:../../../Resources_V12/I2C_Subroutines/I2C_subroutines_2.c **** 
 124:../../../Resources_V12/I2C_Subroutines/I2C_subroutines_2.c **** /************************************************************************/
 125:../../../Resources_V12/I2C_Subroutines/I2C_subroutines_2.c **** void I2C_Tx_2URNs_from_IO(char s[]){								//Two unsigned real numbers to display
 5707               		.loc 7 125 0
 5708               		.cfi_startproc
 5709               	.LVL462:
 5710               	/* prologue: function */
 5711               	/* frame size = 0 */
 5712               	/* stack size = 0 */
 5713               	.L__stack_usage = 0
 126:../../../Resources_V12/I2C_Subroutines/I2C_subroutines_2.c **** char num_bytes=8; char mode=8;
 127:../../../Resources_V12/I2C_Subroutines/I2C_subroutines_2.c **** I2C_Tx(num_bytes,mode, s);}
 5714               		.loc 7 127 0
 5715 17b6 AC01      		movw r20,r24
 5716 17b8 68E0      		ldi r22,lo8(8)
 5717 17ba 88E0      		ldi r24,lo8(8)
 5718               	.LVL463:
 5719 17bc 0C94 0000 		jmp I2C_Tx
 5720               	.LVL464:
 5721               		.cfi_endproc
 5722               	.LFE33:
 5724               	.global	I2C_Tx_accumulator_op
 5726               	I2C_Tx_accumulator_op:
 5727               	.LFB34:
 128:../../../Resources_V12/I2C_Subroutines/I2C_subroutines_2.c **** 
 129:../../../Resources_V12/I2C_Subroutines/I2C_subroutines_2.c **** 
 130:../../../Resources_V12/I2C_Subroutines/I2C_subroutines_2.c **** /************************************************************************/
 131:../../../Resources_V12/I2C_Subroutines/I2C_subroutines_2.c **** void I2C_Tx_accumulator_op(char s[],char Op){			//was I2C_Tx_5
 5728               		.loc 7 131 0
 5729               		.cfi_startproc
 5730               	.LVL465:
 5731               	/* prologue: function */
 5732               	/* frame size = 0 */
 5733               	/* stack size = 0 */
 5734               	.L__stack_usage = 0
 5735 17c0 AC01      		movw r20,r24
 132:../../../Resources_V12/I2C_Subroutines/I2C_subroutines_2.c **** char num_bytes, mode;
 133:../../../Resources_V12/I2C_Subroutines/I2C_subroutines_2.c **** 
 134:../../../Resources_V12/I2C_Subroutines/I2C_subroutines_2.c **** switch(Op){
 5736               		.loc 7 134 0
 5737 17c2 6934      		cpi r22,lo8(73)
 5738 17c4 01F0      		breq .L522
 5739 17c6 6E34      		cpi r22,lo8(78)
 5740 17c8 01F0      		breq .L523
 5741 17ca 6434      		cpi r22,lo8(68)
 5742 17cc 01F4      		brne .L529
 5743 17ce 00C0      		rjmp .L532
 5744               	.L522:
 5745 17d0 FC01      		movw r30,r24
 5746 17d2 0896      		adiw r24,8
 5747               	.LVL466:
 5748               	.L525:
 5749               	.LBB87:
 135:../../../Resources_V12/I2C_Subroutines/I2C_subroutines_2.c **** 
 136:../../../Resources_V12/I2C_Subroutines/I2C_subroutines_2.c **** case 'I': for (int m = 0; m < 8; m++)s[m] = 0;
 5750               		.loc 7 136 0 discriminator 3
 5751 17d4 1192      		st Z+,__zero_reg__
 5752               	.LVL467:
 5753 17d6 8E17      		cp r24,r30
 5754 17d8 9F07      		cpc r25,r31
 5755 17da 01F4      		brne .L525
 5756               	.LBE87:
 137:../../../Resources_V12/I2C_Subroutines/I2C_subroutines_2.c **** s[0] = '0'; num_bytes=8; mode = 4;
 5757               		.loc 7 137 0
 5758 17dc 80E3      		ldi r24,lo8(48)
 5759 17de FA01      		movw r30,r20
 5760               	.LVL468:
 5761 17e0 8083      		st Z,r24
 5762               	.LVL469:
 138:../../../Resources_V12/I2C_Subroutines/I2C_subroutines_2.c **** I2C_Tx(num_bytes,mode, s); break;
 5763               		.loc 7 138 0
 5764 17e2 64E0      		ldi r22,lo8(4)
 5765               	.LVL470:
 5766 17e4 00C0      		rjmp .L531
 5767               	.LVL471:
 5768               	.L523:
 5769 17e6 FC01      		movw r30,r24
 5770 17e8 0896      		adiw r24,8
 5771               	.L526:
 5772               	.LVL472:
 5773               	.LBB88:
 139:../../../Resources_V12/I2C_Subroutines/I2C_subroutines_2.c **** case 'D': num_bytes=8; mode = 'B';
 140:../../../Resources_V12/I2C_Subroutines/I2C_subroutines_2.c **** I2C_Tx(num_bytes,mode, s); break;
 141:../../../Resources_V12/I2C_Subroutines/I2C_subroutines_2.c **** case 'N': for (int m = 0; m < 8; m++)s[m] = 0;
 5774               		.loc 7 141 0 discriminator 3
 5775 17ea 1192      		st Z+,__zero_reg__
 5776               	.LVL473:
 5777 17ec E817      		cp r30,r24
 5778 17ee F907      		cpc r31,r25
 5779 17f0 01F4      		brne .L526
 5780               	.LBE88:
 142:../../../Resources_V12/I2C_Subroutines/I2C_subroutines_2.c **** s[0] = '0'; num_bytes=8; mode = 'B';
 5781               		.loc 7 142 0
 5782 17f2 80E3      		ldi r24,lo8(48)
 5783 17f4 FA01      		movw r30,r20
 5784               	.LVL474:
 5785 17f6 8083      		st Z,r24
 5786               	.L532:
 5787               	.LVL475:
 143:../../../Resources_V12/I2C_Subroutines/I2C_subroutines_2.c **** I2C_Tx(num_bytes,mode, s); break;
 5788               		.loc 7 143 0
 5789 17f8 62E4      		ldi r22,lo8(66)
 5790               	.LVL476:
 5791               	.L531:
 5792 17fa 88E0      		ldi r24,lo8(8)
 5793 17fc 00C0      		rjmp .L530
 5794               	.LVL477:
 5795               	.L529:
 144:../../../Resources_V12/I2C_Subroutines/I2C_subroutines_2.c **** default: mode = 'A'; num_bytes=9;
 145:../../../Resources_V12/I2C_Subroutines/I2C_subroutines_2.c **** s[8] = Op; I2C_Tx(num_bytes,mode, s); break;}}
 5796               		.loc 7 145 0
 5797 17fe FC01      		movw r30,r24
 5798 1800 6087      		std Z+8,r22
 5799 1802 61E4      		ldi r22,lo8(65)
 5800               	.LVL478:
 5801 1804 89E0      		ldi r24,lo8(9)
 5802               	.LVL479:
 5803               	.L530:
 5804 1806 0C94 0000 		jmp I2C_Tx
 5805               	.LVL480:
 5806               		.cfi_endproc
 5807               	.LFE34:
 5809               	.global	receive_byte_with_Ack
 5811               	receive_byte_with_Ack:
 5812               	.LFB67:
  42:../../../Resources_V12/I2C_Subroutines/I2C_slave_Rx_Tx.c **** 
  43:../../../Resources_V12/I2C_Subroutines/I2C_slave_Rx_Tx.c **** /***********************************************************/
  44:../../../Resources_V12/I2C_Subroutines/I2C_slave_Rx_Tx.c **** char receive_byte_with_Ack(void){
 5813               		.loc 5 44 0
 5814               		.cfi_startproc
 5815               	/* prologue: function */
 5816               	/* frame size = 0 */
 5817               	/* stack size = 0 */
 5818               	.L__stack_usage = 0
  45:../../../Resources_V12/I2C_Subroutines/I2C_slave_Rx_Tx.c **** char byte;
  46:../../../Resources_V12/I2C_Subroutines/I2C_slave_Rx_Tx.c **** TWCR = (1 << TWEA) | (1 << TWEN) | (1 << TWINT);		//Set Ack enable and clear interrupt
 5819               		.loc 5 46 0
 5820 180a 84EC      		ldi r24,lo8(-60)
 5821 180c 8093 BC00 		sts 188,r24
 5822               	.L534:
  47:../../../Resources_V12/I2C_Subroutines/I2C_slave_Rx_Tx.c **** while (!(TWCR & (1 << TWINT)));						//Wait for interrupt
 5823               		.loc 5 47 0 discriminator 1
 5824 1810 8091 BC00 		lds r24,188
 5825 1814 87FF      		sbrs r24,7
 5826 1816 00C0      		rjmp .L534
  48:../../../Resources_V12/I2C_Subroutines/I2C_slave_Rx_Tx.c **** byte = TWDR;
 5827               		.loc 5 48 0
 5828 1818 8091 BB00 		lds r24,187
 5829               	.LVL481:
  49:../../../Resources_V12/I2C_Subroutines/I2C_slave_Rx_Tx.c **** return byte;}
 5830               		.loc 5 49 0
 5831 181c 0895      		ret
 5832               		.cfi_endproc
 5833               	.LFE67:
 5835               	.global	receive_byte_with_Nack
 5837               	receive_byte_with_Nack:
 5838               	.LFB68:
  50:../../../Resources_V12/I2C_Subroutines/I2C_slave_Rx_Tx.c **** 
  51:../../../Resources_V12/I2C_Subroutines/I2C_slave_Rx_Tx.c **** /***********************************************************/
  52:../../../Resources_V12/I2C_Subroutines/I2C_slave_Rx_Tx.c **** char receive_byte_with_Nack(void){
 5839               		.loc 5 52 0
 5840               		.cfi_startproc
 5841               	/* prologue: function */
 5842               	/* frame size = 0 */
 5843               	/* stack size = 0 */
 5844               	.L__stack_usage = 0
  53:../../../Resources_V12/I2C_Subroutines/I2C_slave_Rx_Tx.c **** char byte;
  54:../../../Resources_V12/I2C_Subroutines/I2C_slave_Rx_Tx.c **** TWCR = (1 << TWEN) | (1 << TWINT);		//Set Ack enable and clear interrupt
 5845               		.loc 5 54 0
 5846 181e 84E8      		ldi r24,lo8(-124)
 5847 1820 8093 BC00 		sts 188,r24
 5848               	.L537:
  55:../../../Resources_V12/I2C_Subroutines/I2C_slave_Rx_Tx.c **** while (!(TWCR & (1 << TWINT)));						//Wait for interrupt
 5849               		.loc 5 55 0 discriminator 1
 5850 1824 8091 BC00 		lds r24,188
 5851 1828 87FF      		sbrs r24,7
 5852 182a 00C0      		rjmp .L537
  56:../../../Resources_V12/I2C_Subroutines/I2C_slave_Rx_Tx.c **** byte = TWDR;
 5853               		.loc 5 56 0
 5854 182c 8091 BB00 		lds r24,187
 5855               	.LVL482:
  57:../../../Resources_V12/I2C_Subroutines/I2C_slave_Rx_Tx.c **** return byte;}
 5856               		.loc 5 57 0
 5857 1830 0895      		ret
 5858               		.cfi_endproc
 5859               	.LFE68:
 5861               	.global	I2C_displayToNum
 5863               	I2C_displayToNum:
 5864               	.LFB28:
  69:../../../Resources_V12/I2C_Subroutines/I2C_subroutines_2.c **** long L_number = 0;
 5865               		.loc 7 69 0
 5866               		.cfi_startproc
 5867 1832 CF92      		push r12
 5868               	.LCFI226:
 5869               		.cfi_def_cfa_offset 3
 5870               		.cfi_offset 12, -2
 5871 1834 DF92      		push r13
 5872               	.LCFI227:
 5873               		.cfi_def_cfa_offset 4
 5874               		.cfi_offset 13, -3
 5875 1836 EF92      		push r14
 5876               	.LCFI228:
 5877               		.cfi_def_cfa_offset 5
 5878               		.cfi_offset 14, -4
 5879 1838 FF92      		push r15
 5880               	.LCFI229:
 5881               		.cfi_def_cfa_offset 6
 5882               		.cfi_offset 15, -5
 5883 183a CF93      		push r28
 5884               	.LCFI230:
 5885               		.cfi_def_cfa_offset 7
 5886               		.cfi_offset 28, -6
 5887 183c DF93      		push r29
 5888               	.LCFI231:
 5889               		.cfi_def_cfa_offset 8
 5890               		.cfi_offset 29, -7
 5891               	/* prologue: function */
 5892               	/* frame size = 0 */
 5893               	/* stack size = 6 */
 5894               	.L__stack_usage = 6
 5895               	.LVL483:
  75:../../../Resources_V12/I2C_Subroutines/I2C_subroutines_2.c **** send_byte_with_Ack(num_bytes);
 5896               		.loc 7 75 0
 5897 183e 84E4      		ldi r24,lo8(68)
 5898 1840 8093 BC00 		sts 188,r24
 5899               	.L540:
  75:../../../Resources_V12/I2C_Subroutines/I2C_subroutines_2.c **** send_byte_with_Ack(num_bytes);
 5900               		.loc 7 75 0 is_stmt 0 discriminator 2
 5901 1844 8091 BC00 		lds r24,188
 5902 1848 87FF      		sbrs r24,7
 5903 184a 00C0      		rjmp .L540
  75:../../../Resources_V12/I2C_Subroutines/I2C_subroutines_2.c **** send_byte_with_Ack(num_bytes);
 5904               		.loc 7 75 0 discriminator 3
 5905 184c 8091 BB00 		lds r24,187
  76:../../../Resources_V12/I2C_Subroutines/I2C_subroutines_2.c **** send_byte_with_Nack(mode);
 5906               		.loc 7 76 0 is_stmt 1 discriminator 3
 5907 1850 80E0      		ldi r24,0
 5908 1852 0E94 0000 		call send_byte_with_Ack
 5909               	.LVL484:
  77:../../../Resources_V12/I2C_Subroutines/I2C_subroutines_2.c **** TWCR = (1 << TWINT) | (1 << TWEN);			//clear interrupt and leave I2C active
 5910               		.loc 7 77 0 discriminator 3
 5911 1856 89E4      		ldi r24,lo8(73)
 5912 1858 0E94 0000 		call send_byte_with_Nack
 5913               	.LVL485:
  78:../../../Resources_V12/I2C_Subroutines/I2C_subroutines_2.c **** waiting_for_I2C_master;
 5914               		.loc 7 78 0 discriminator 3
 5915 185c 84E8      		ldi r24,lo8(-124)
 5916 185e 8093 BC00 		sts 188,r24
  79:../../../Resources_V12/I2C_Subroutines/I2C_subroutines_2.c **** 
 5917               		.loc 7 79 0 discriminator 3
 5918 1862 84E4      		ldi r24,lo8(68)
 5919 1864 8093 BC00 		sts 188,r24
 5920               	.L541:
  79:../../../Resources_V12/I2C_Subroutines/I2C_subroutines_2.c **** 
 5921               		.loc 7 79 0 is_stmt 0 discriminator 2
 5922 1868 8091 BC00 		lds r24,188
 5923 186c 87FF      		sbrs r24,7
 5924 186e 00C0      		rjmp .L541
  79:../../../Resources_V12/I2C_Subroutines/I2C_subroutines_2.c **** 
 5925               		.loc 7 79 0 discriminator 3
 5926 1870 8091 BB00 		lds r24,187
 5927               	.LVL486:
 5928               	.LBB89:
  81:../../../Resources_V12/I2C_Subroutines/I2C_subroutines_2.c **** if (m ==3){receive_byte = receive_byte_with_Nack();}
 5929               		.loc 7 81 0 is_stmt 1 discriminator 3
 5930 1874 C0E0      		ldi r28,0
 5931 1876 D0E0      		ldi r29,0
 5932               	.LBE89:
  70:../../../Resources_V12/I2C_Subroutines/I2C_subroutines_2.c **** char receive_byte;
 5933               		.loc 7 70 0 discriminator 3
 5934 1878 C12C      		mov r12,__zero_reg__
 5935 187a D12C      		mov r13,__zero_reg__
 5936 187c 7601      		movw r14,r12
 5937               	.LVL487:
 5938               	.L544:
 5939               	.LBB90:
  82:../../../Resources_V12/I2C_Subroutines/I2C_subroutines_2.c **** else {receive_byte = receive_byte_with_Ack();}
 5940               		.loc 7 82 0
 5941 187e C330      		cpi r28,3
 5942 1880 D105      		cpc r29,__zero_reg__
 5943 1882 01F4      		brne .L542
  82:../../../Resources_V12/I2C_Subroutines/I2C_subroutines_2.c **** else {receive_byte = receive_byte_with_Ack();}
 5944               		.loc 7 82 0 is_stmt 0 discriminator 1
 5945 1884 0E94 0000 		call receive_byte_with_Nack
 5946               	.LVL488:
  87:../../../Resources_V12/I2C_Subroutines/I2C_subroutines_2.c **** clear_I2C_interrupt;
 5947               		.loc 7 87 0 is_stmt 1 discriminator 1
 5948 1888 C80E      		add r12,r24
 5949 188a D11C      		adc r13,__zero_reg__
 5950 188c E11C      		adc r14,__zero_reg__
 5951 188e F11C      		adc r15,__zero_reg__
 5952               	.LVL489:
 5953 1890 00C0      		rjmp .L543
 5954               	.LVL490:
 5955               	.L542:
  83:../../../Resources_V12/I2C_Subroutines/I2C_subroutines_2.c **** switch(m){
 5956               		.loc 7 83 0
 5957 1892 0E94 0000 		call receive_byte_with_Ack
 5958               	.LVL491:
  85:../../../Resources_V12/I2C_Subroutines/I2C_subroutines_2.c **** L_number = L_number << 8; break;
 5959               		.loc 7 85 0
 5960 1896 C80E      		add r12,r24
 5961 1898 D11C      		adc r13,__zero_reg__
 5962 189a E11C      		adc r14,__zero_reg__
 5963 189c F11C      		adc r15,__zero_reg__
 5964               	.LVL492:
  86:../../../Resources_V12/I2C_Subroutines/I2C_subroutines_2.c **** case 3: L_number =  L_number + receive_byte; break;}}
 5965               		.loc 7 86 0
 5966 189e FE2C      		mov r15,r14
 5967 18a0 ED2C      		mov r14,r13
 5968 18a2 DC2C      		mov r13,r12
 5969 18a4 CC24      		clr r12
 5970               	.LVL493:
 5971               	.L543:
  81:../../../Resources_V12/I2C_Subroutines/I2C_subroutines_2.c **** if (m ==3){receive_byte = receive_byte_with_Nack();}
 5972               		.loc 7 81 0 discriminator 2
 5973 18a6 2196      		adiw r28,1
 5974               	.LVL494:
 5975 18a8 C430      		cpi r28,4
 5976 18aa D105      		cpc r29,__zero_reg__
 5977 18ac 01F4      		brne .L544
 5978               	.LVL495:
 5979               	.LBE90:
  88:../../../Resources_V12/I2C_Subroutines/I2C_subroutines_2.c **** return L_number;}
 5980               		.loc 7 88 0
 5981 18ae 80E8      		ldi r24,lo8(-128)
 5982 18b0 8093 BC00 		sts 188,r24
  89:../../../Resources_V12/I2C_Subroutines/I2C_subroutines_2.c **** 
 5983               		.loc 7 89 0
 5984 18b4 C701      		movw r24,r14
 5985 18b6 B601      		movw r22,r12
 5986               	/* epilogue start */
 5987 18b8 DF91      		pop r29
 5988 18ba CF91      		pop r28
 5989 18bc FF90      		pop r15
 5990 18be EF90      		pop r14
 5991 18c0 DF90      		pop r13
 5992 18c2 CF90      		pop r12
 5993               	.LVL496:
 5994 18c4 0895      		ret
 5995               		.cfi_endproc
 5996               	.LFE28:
 5998               	.global	Num_from_KBD
 6000               	Num_from_KBD:
 6001               	.LFB58:
  16:../../../Resources_V12/Subroutines/Integers_to_from_PC.c **** char keypress;
 6002               		.loc 4 16 0
 6003               		.cfi_startproc
 6004               	.LVL497:
 6005 18c6 CF93      		push r28
 6006               	.LCFI232:
 6007               		.cfi_def_cfa_offset 3
 6008               		.cfi_offset 28, -2
 6009 18c8 DF93      		push r29
 6010               	.LCFI233:
 6011               		.cfi_def_cfa_offset 4
 6012               		.cfi_offset 29, -3
 6013               	/* prologue: function */
 6014               	/* frame size = 0 */
 6015               	/* stack size = 2 */
 6016               	.L__stack_usage = 2
 6017 18ca EC01      		movw r28,r24
 6018               	.LVL498:
 6019 18cc 0896      		adiw r24,8
 6020               	.LVL499:
  16:../../../Resources_V12/Subroutines/Integers_to_from_PC.c **** char keypress;
 6021               		.loc 4 16 0
 6022 18ce FE01      		movw r30,r28
 6023               	.LVL500:
 6024               	.L549:
 6025               	.LBB91:
  18:../../../Resources_V12/Subroutines/Integers_to_from_PC.c **** 
 6026               		.loc 4 18 0 discriminator 3
 6027 18d0 1192      		st Z+,__zero_reg__
 6028               	.LVL501:
 6029 18d2 E817      		cp r30,r24
 6030 18d4 F907      		cpc r31,r25
 6031 18d6 01F4      		brne .L549
 6032               	.LVL502:
 6033               	.L557:
 6034               	.LBE91:
  21:../../../Resources_V12/Subroutines/Integers_to_from_PC.c **** while ((!(decimal_digit(keypress)))&& (keypress != '-'));						//(non_decimal_char(keypress));  //N
 6035               		.loc 4 21 0 discriminator 2
 6036 18d8 0E94 0000 		call waitforkeypress
 6037               	.LVL503:
 6038               	.LBB92:
 6039               	.LBB93:
 134:../../../Resources_V12/Subroutines/Basic_PC_comms.c **** else return 1;}
 6040               		.loc 2 134 0 discriminator 2
 6041 18dc 90ED      		ldi r25,lo8(-48)
 6042 18de 980F      		add r25,r24
 6043 18e0 9A30      		cpi r25,lo8(10)
 6044 18e2 00F4      		brsh .L550
 6045               	.LVL504:
 6046               	.L556:
 6047               	.LBE93:
 6048               	.LBE92:
  23:../../../Resources_V12/Subroutines/Integers_to_from_PC.c **** I2C_Tx_8_byte_array(digits);
 6049               		.loc 4 23 0
 6050 18e4 8883      		st Y,r24
  24:../../../Resources_V12/Subroutines/Integers_to_from_PC.c **** 
 6051               		.loc 4 24 0
 6052 18e6 CE01      		movw r24,r28
 6053               	.LVL505:
 6054 18e8 0E94 0000 		call I2C_Tx_8_byte_array
 6055               	.LVL506:
 6056               	.L552:
  27:../../../Resources_V12/Subroutines/Integers_to_from_PC.c **** if (decimal_digit (keypress))						//012345678or9	:Builds up the number one keypress at a time
 6057               		.loc 4 27 0
 6058 18ec 0E94 0000 		call wait_for_return_key
 6059               	.LVL507:
 6060 18f0 8D30      		cpi r24,lo8(13)
 6061 18f2 01F0      		breq .L551
 6062               	.LVL508:
 6063               	.LBB94:
 6064               	.LBB95:
 134:../../../Resources_V12/Subroutines/Basic_PC_comms.c **** else return 1;}
 6065               		.loc 2 134 0
 6066 18f4 90ED      		ldi r25,lo8(-48)
 6067 18f6 980F      		add r25,r24
 6068 18f8 9A30      		cpi r25,lo8(10)
 6069 18fa 00F4      		brsh .L552
 6070 18fc FE01      		movw r30,r28
 6071 18fe 3796      		adiw r30,7
 6072               	.L553:
 6073               	.LVL509:
 6074               	.LBE95:
 6075               	.LBE94:
 6076               	.LBB96:
  30:../../../Resources_V12/Subroutines/Integers_to_from_PC.c **** digits[0] = keypress;
 6077               		.loc 4 30 0 discriminator 3
 6078 1900 9291      		ld r25,-Z
 6079               	.LVL510:
 6080 1902 9183      		std Z+1,r25
 6081               	.LVL511:
  29:../../../Resources_V12/Subroutines/Integers_to_from_PC.c **** digits[n] = digits[n-1];							//Shifts display left for each keypress
 6082               		.loc 4 29 0 discriminator 3
 6083 1904 CE17      		cp r28,r30
 6084 1906 DF07      		cpc r29,r31
 6085 1908 01F4      		brne .L553
 6086 190a 00C0      		rjmp .L556
 6087               	.LVL512:
 6088               	.L551:
 6089               	/* epilogue start */
 6090               	.LBE96:
  34:../../../Resources_V12/Subroutines/Integers_to_from_PC.c **** 
 6091               		.loc 4 34 0
 6092 190c DF91      		pop r29
 6093 190e CF91      		pop r28
 6094               	.LVL513:
 6095 1910 0C94 0000 		jmp I2C_displayToNum
 6096               	.LVL514:
 6097               	.L550:
  22:../../../Resources_V12/Subroutines/Integers_to_from_PC.c **** digits[0] = keypress;
 6098               		.loc 4 22 0
 6099 1914 8D32      		cpi r24,lo8(45)
 6100 1916 01F4      		brne .L557
 6101 1918 00C0      		rjmp .L556
 6102               		.cfi_endproc
 6103               	.LFE58:
 6105               	.global	I2C_Rx_RN
 6107               	I2C_Rx_RN:
 6108               	.LFB69:
  58:../../../Resources_V12/I2C_Subroutines/I2C_slave_Rx_Tx.c **** 
  59:../../../Resources_V12/I2C_Subroutines/I2C_slave_Rx_Tx.c **** /***********************************************************/
  60:../../../Resources_V12/I2C_Subroutines/I2C_slave_Rx_Tx.c **** void I2C_Rx_RN(unsigned long *RHSofDP, signed char *res_exp){
 6109               		.loc 5 60 0
 6110               		.cfi_startproc
 6111               	.LVL515:
 6112 191a EF92      		push r14
 6113               	.LCFI234:
 6114               		.cfi_def_cfa_offset 3
 6115               		.cfi_offset 14, -2
 6116 191c FF92      		push r15
 6117               	.LCFI235:
 6118               		.cfi_def_cfa_offset 4
 6119               		.cfi_offset 15, -3
 6120 191e 0F93      		push r16
 6121               	.LCFI236:
 6122               		.cfi_def_cfa_offset 5
 6123               		.cfi_offset 16, -4
 6124 1920 1F93      		push r17
 6125               	.LCFI237:
 6126               		.cfi_def_cfa_offset 6
 6127               		.cfi_offset 17, -5
 6128 1922 CF93      		push r28
 6129               	.LCFI238:
 6130               		.cfi_def_cfa_offset 7
 6131               		.cfi_offset 28, -6
 6132 1924 DF93      		push r29
 6133               	.LCFI239:
 6134               		.cfi_def_cfa_offset 8
 6135               		.cfi_offset 29, -7
 6136               	/* prologue: function */
 6137               	/* frame size = 0 */
 6138               	/* stack size = 6 */
 6139               	.L__stack_usage = 6
 6140 1926 8C01      		movw r16,r24
 6141 1928 7B01      		movw r14,r22
  61:../../../Resources_V12/I2C_Subroutines/I2C_slave_Rx_Tx.c **** char receive_byte;				
  62:../../../Resources_V12/I2C_Subroutines/I2C_slave_Rx_Tx.c **** 
  63:../../../Resources_V12/I2C_Subroutines/I2C_slave_Rx_Tx.c **** waiting_for_I2C_master;						
 6142               		.loc 5 63 0
 6143 192a 84E4      		ldi r24,lo8(68)
 6144               	.LVL516:
 6145 192c 8093 BC00 		sts 188,r24
 6146               	.L563:
 6147               		.loc 5 63 0 is_stmt 0 discriminator 2
 6148 1930 8091 BC00 		lds r24,188
 6149 1934 87FF      		sbrs r24,7
 6150 1936 00C0      		rjmp .L563
 6151               		.loc 5 63 0 discriminator 3
 6152 1938 8091 BB00 		lds r24,187
 6153               	.LVL517:
 6154               	.LBB97:
  64:../../../Resources_V12/I2C_Subroutines/I2C_slave_Rx_Tx.c **** 
  65:../../../Resources_V12/I2C_Subroutines/I2C_slave_Rx_Tx.c **** for (int m = 0; m<=3; m++){				//Receive 4 chars and assemble into unsigned long result
 6155               		.loc 5 65 0 is_stmt 1 discriminator 3
 6156 193c C0E0      		ldi r28,0
 6157 193e D0E0      		ldi r29,0
 6158               	.LVL518:
 6159               	.L567:
  66:../../../Resources_V12/I2C_Subroutines/I2C_slave_Rx_Tx.c **** receive_byte = receive_byte_with_Ack();
 6160               		.loc 5 66 0
 6161 1940 0E94 0000 		call receive_byte_with_Ack
 6162               	.LVL519:
 6163 1944 482F      		mov r20,r24
 6164 1946 50E0      		ldi r21,0
 6165 1948 60E0      		ldi r22,0
 6166 194a 70E0      		ldi r23,0
 6167 194c F801      		movw r30,r16
 6168 194e 8081      		ld r24,Z
 6169 1950 9181      		ldd r25,Z+1
 6170 1952 A281      		ldd r26,Z+2
 6171 1954 B381      		ldd r27,Z+3
 6172               	.LVL520:
  67:../../../Resources_V12/I2C_Subroutines/I2C_slave_Rx_Tx.c **** switch(m){
  68:../../../Resources_V12/I2C_Subroutines/I2C_slave_Rx_Tx.c **** case 0: case 1: case 2:*RHSofDP =  *RHSofDP + receive_byte; 
  69:../../../Resources_V12/I2C_Subroutines/I2C_slave_Rx_Tx.c **** *RHSofDP = *RHSofDP << 8; break;
  70:../../../Resources_V12/I2C_Subroutines/I2C_slave_Rx_Tx.c **** case 3: *RHSofDP =  *RHSofDP + receive_byte; break;}}
 6173               		.loc 5 70 0
 6174 1956 480F      		add r20,r24
 6175 1958 591F      		adc r21,r25
 6176 195a 6A1F      		adc r22,r26
 6177 195c 7B1F      		adc r23,r27
 6178               	.LVL521:
  67:../../../Resources_V12/I2C_Subroutines/I2C_slave_Rx_Tx.c **** switch(m){
 6179               		.loc 5 67 0
 6180 195e C330      		cpi r28,3
 6181 1960 D105      		cpc r29,__zero_reg__
 6182 1962 01F0      		breq .L565
  69:../../../Resources_V12/I2C_Subroutines/I2C_slave_Rx_Tx.c **** case 3: *RHSofDP =  *RHSofDP + receive_byte; break;}}
 6183               		.loc 5 69 0
 6184 1964 762F      		mov r23,r22
 6185 1966 652F      		mov r22,r21
 6186 1968 542F      		mov r21,r20
 6187 196a 4427      		clr r20
 6188 196c 00C0      		rjmp .L570
 6189               	.L565:
 6190               		.loc 5 70 0
 6191 196e F801      		movw r30,r16
 6192               	.L570:
 6193 1970 4083      		st Z,r20
 6194 1972 5183      		std Z+1,r21
 6195 1974 6283      		std Z+2,r22
 6196 1976 7383      		std Z+3,r23
  65:../../../Resources_V12/I2C_Subroutines/I2C_slave_Rx_Tx.c **** receive_byte = receive_byte_with_Ack();
 6197               		.loc 5 65 0
 6198 1978 2196      		adiw r28,1
 6199               	.LVL522:
 6200 197a C430      		cpi r28,4
 6201 197c D105      		cpc r29,__zero_reg__
 6202 197e 01F4      		brne .L567
 6203               	.LVL523:
 6204               	.LBE97:
  71:../../../Resources_V12/I2C_Subroutines/I2C_slave_Rx_Tx.c **** 
  72:../../../Resources_V12/I2C_Subroutines/I2C_slave_Rx_Tx.c **** *res_exp = receive_byte_with_Nack();		//last char is the exponent
 6205               		.loc 5 72 0
 6206 1980 0E94 0000 		call receive_byte_with_Nack
 6207               	.LVL524:
 6208 1984 F701      		movw r30,r14
 6209 1986 8083      		st Z,r24
  73:../../../Resources_V12/I2C_Subroutines/I2C_slave_Rx_Tx.c **** clear_I2C_interrupt;}					
 6210               		.loc 5 73 0
 6211 1988 80E8      		ldi r24,lo8(-128)
 6212 198a 8093 BC00 		sts 188,r24
 6213               	/* epilogue start */
 6214 198e DF91      		pop r29
 6215 1990 CF91      		pop r28
 6216 1992 1F91      		pop r17
 6217 1994 0F91      		pop r16
 6218               	.LVL525:
 6219 1996 FF90      		pop r15
 6220 1998 EF90      		pop r14
 6221               	.LVL526:
 6222 199a 0895      		ret
 6223               		.cfi_endproc
 6224               	.LFE69:
 6226               		.section	.rodata.str1.1
 6227               	.LC4:
 6228 000e 0D0A 302E 		.string	"\r\n0."
 6228      00
 6229               		.text
 6230               	.global	I2C_Tx_Uarithmetic_OP
 6232               	I2C_Tx_Uarithmetic_OP:
 6233               	.LFB32:
 111:../../../Resources_V12/I2C_Subroutines/I2C_subroutines_2.c **** unsigned long RHSofDP; 
 6234               		.loc 7 111 0
 6235               		.cfi_startproc
 6236               	.LVL527:
 6237 199c CF93      		push r28
 6238               	.LCFI240:
 6239               		.cfi_def_cfa_offset 3
 6240               		.cfi_offset 28, -2
 6241 199e DF93      		push r29
 6242               	.LCFI241:
 6243               		.cfi_def_cfa_offset 4
 6244               		.cfi_offset 29, -3
 6245 19a0 CDB7      		in r28,__SP_L__
 6246 19a2 DEB7      		in r29,__SP_H__
 6247               	.LCFI242:
 6248               		.cfi_def_cfa_register 28
 6249 19a4 2797      		sbiw r28,7
 6250               	.LCFI243:
 6251               		.cfi_def_cfa_offset 11
 6252 19a6 0FB6      		in __tmp_reg__,__SREG__
 6253 19a8 F894      		cli
 6254 19aa DEBF      		out __SP_H__,r29
 6255 19ac 0FBE      		out __SREG__,__tmp_reg__
 6256 19ae CDBF      		out __SP_L__,r28
 6257               	/* prologue: function */
 6258               	/* frame size = 7 */
 6259               	/* stack size = 9 */
 6260               	.L__stack_usage = 9
 6261               	.LVL528:
 116:../../../Resources_V12/I2C_Subroutines/I2C_subroutines_2.c **** s[0] = Op;
 6262               		.loc 7 116 0
 6263 19b0 1982      		std Y+1,__zero_reg__
 6264 19b2 1A82      		std Y+2,__zero_reg__
 6265 19b4 1B82      		std Y+3,__zero_reg__
 6266 19b6 1C82      		std Y+4,__zero_reg__
 6267 19b8 1F82      		std Y+7,__zero_reg__
 117:../../../Resources_V12/I2C_Subroutines/I2C_subroutines_2.c **** I2C_Tx(num_bytes,mode,s);
 6268               		.loc 7 117 0
 6269 19ba 8D83      		std Y+5,r24
 118:../../../Resources_V12/I2C_Subroutines/I2C_subroutines_2.c **** if(s[0] == 'A')return;{
 6270               		.loc 7 118 0
 6271 19bc AE01      		movw r20,r28
 6272 19be 4B5F      		subi r20,-5
 6273 19c0 5F4F      		sbci r21,-1
 6274 19c2 69E0      		ldi r22,lo8(9)
 6275 19c4 81E0      		ldi r24,lo8(1)
 6276               	.LVL529:
 6277 19c6 0E94 0000 		call I2C_Tx
 6278               	.LVL530:
 119:../../../Resources_V12/I2C_Subroutines/I2C_subroutines_2.c **** I2C_Rx_RN(&RHSofDP, &res_exp);
 6279               		.loc 7 119 0
 6280 19ca 8D81      		ldd r24,Y+5
 6281 19cc 8134      		cpi r24,lo8(65)
 6282 19ce 01F0      		breq .L571
 120:../../../Resources_V12/I2C_Subroutines/I2C_subroutines_2.c **** String_to_PC("\r\n0.");Num_to_PC(10,RHSofDP); Exp_to_PC(res_exp);} }
 6283               		.loc 7 120 0
 6284 19d0 BE01      		movw r22,r28
 6285 19d2 695F      		subi r22,-7
 6286 19d4 7F4F      		sbci r23,-1
 6287 19d6 CE01      		movw r24,r28
 6288 19d8 0196      		adiw r24,1
 6289 19da 0E94 0000 		call I2C_Rx_RN
 6290               	.LVL531:
 121:../../../Resources_V12/I2C_Subroutines/I2C_subroutines_2.c **** 
 6291               		.loc 7 121 0
 6292 19de 80E0      		ldi r24,lo8(.LC4)
 6293 19e0 90E0      		ldi r25,hi8(.LC4)
 6294 19e2 0E94 0000 		call String_to_PC
 6295               	.LVL532:
 6296 19e6 4981      		ldd r20,Y+1
 6297 19e8 5A81      		ldd r21,Y+2
 6298 19ea 6B81      		ldd r22,Y+3
 6299 19ec 7C81      		ldd r23,Y+4
 6300 19ee 8AE0      		ldi r24,lo8(10)
 6301 19f0 0E94 0000 		call Num_to_PC
 6302               	.LVL533:
 6303 19f4 8F81      		ldd r24,Y+7
 6304 19f6 0E94 0000 		call Exp_to_PC
 6305               	.LVL534:
 6306               	.L571:
 6307               	/* epilogue start */
 6308 19fa 2796      		adiw r28,7
 6309 19fc 0FB6      		in __tmp_reg__,__SREG__
 6310 19fe F894      		cli
 6311 1a00 DEBF      		out __SP_H__,r29
 6312 1a02 0FBE      		out __SREG__,__tmp_reg__
 6313 1a04 CDBF      		out __SP_L__,r28
 6314 1a06 DF91      		pop r29
 6315 1a08 CF91      		pop r28
 6316 1a0a 0895      		ret
 6317               		.cfi_endproc
 6318               	.LFE32:
 6320               		.section	.rodata.str1.1
 6321               	.LC5:
 6322 0013 4563 686F 		.string	"Echo keypresses "
 6322      206B 6579 
 6322      7072 6573 
 6322      7365 7320 
 6322      00
 6323               	.LC6:
 6324 0024 4E75 6D62 		.string	"Number entered   "
 6324      6572 2065 
 6324      6E74 6572 
 6324      6564 2020 
 6324      2000 
 6325               		.text
 6326               	.global	Num_from_KBD_Local
 6328               	Num_from_KBD_Local:
 6329               	.LFB71:
 6330               		.file 8 "Proj_3E.c"
   1:Proj_3E.c     **** /*
   2:Proj_3E.c     ****  * Proj_3E_Data_from_KBD.c
   3:Proj_3E.c     ****  *
   4:Proj_3E.c     ****  * Created: 04/05/2020 17:36:32
   5:Proj_3E.c     ****  * Author : Mark
   6:Proj_3E.c     ****  */ 
   7:Proj_3E.c     **** 
   8:Proj_3E.c     **** #include "Proj_3E_header_file.h"
   9:Proj_3E.c     **** 
  10:Proj_3E.c     **** long Divide_and_round(long A, int B);										//subroutine prototype
  11:Proj_3E.c     **** 
  12:Proj_3E.c     **** 
  13:Proj_3E.c     **** int main (void){
  14:Proj_3E.c     **** 	long Num_1;
  15:Proj_3E.c     **** 	char digits[8], OVF;
  16:Proj_3E.c     **** 	char User_response, mode;
  17:Proj_3E.c     **** 	int m;
  18:Proj_3E.c     **** 
  19:Proj_3E.c     **** 	setup_HW_basic;
  20:Proj_3E.c     **** 	User_prompt;
  21:Proj_3E.c     **** 	if(User_response == 'r')mode = 1; else mode = 0;
  22:Proj_3E.c     **** 
  23:Proj_3E.c     **** 
  24:Proj_3E.c     **** 	String_to_PC("Enter positive number & terminate with Return key.\r\n");
  25:Proj_3E.c     **** 	Num_1 = Num_from_KBD_Local(digits);											//Acquires data and Echoes keypresses to screen
  26:Proj_3E.c     **** 	Num_to_PC(10,Num_1); newline();											//Converts number back to a string and sends it to the p
  27:Proj_3E.c     **** 
  28:Proj_3E.c     **** 	String_to_PC("Scientific notation  ");newline();
  29:Proj_3E.c     **** 	OVF=0;																		//Set to 1 when multiplication would generate overflow
  30:Proj_3E.c     **** 	m = 1;																		//Used for arithmetic
  31:Proj_3E.c     **** 	do {
  32:Proj_3E.c     **** 		if(!(OVF))Num_1 *= m; 														//Do arithmetic
  33:Proj_3E.c     **** 		else Num_1 = Divide_and_round(Num_1,m);										//depending on value to OVF
  34:Proj_3E.c     **** 		m++;
  35:Proj_3E.c     **** 		display_in_scientific_notation (Num_1, digits,mode);						//Displays result in scientific notatio
  36:Proj_3E.c     **** 		if((!OVF)&&((Num_1 > 0xFFFFFFFF/(m+1)) || ((Num_1 * (m+1)) < 0)))		//Check for a potential overfl
  37:Proj_3E.c     **** 		OVF = 1;																	//If A*B > 0xFFFF then A > 0xFFFF/B and overflow will occur
  38:Proj_3E.c     **** 		//Also if A*B is a negative number overflow has occurred
  39:Proj_3E.c     **** 
  40:Proj_3E.c     **** 
  41:Proj_3E.c     **** 		if (!OVF)String_to_PC(" x "); else String_to_PC(" / ");					//Finnish Printing out equation
  42:Proj_3E.c     **** 		Num_to_PC(10,m);String_to_PC(" = ");
  43:Proj_3E.c     **** 
  44:Proj_3E.c     **** 		if(!(Num_1)) String_to_PC("Zero");newline();
  45:Proj_3E.c     **** 
  46:Proj_3E.c     **** 		Timer_T0_10mS_delay_x_m(25);
  47:Proj_3E.c     **** 		if(waitforkeypress() == 'x') break;										//press -x- to escape early or AOK to continue
  48:Proj_3E.c     **** 
  49:Proj_3E.c     **** 	}while (Num_1);
  50:Proj_3E.c     **** 
  51:Proj_3E.c     **** 
  52:Proj_3E.c     **** SW_reset;}
  53:Proj_3E.c     **** 
  54:Proj_3E.c     **** 
  55:Proj_3E.c     **** 
  56:Proj_3E.c     **** 
  57:Proj_3E.c     **** /******************************************************************************************/
  58:Proj_3E.c     **** long Num_from_KBD_Local(char digits[]){						//Local version, ignores negative number
 6331               		.loc 8 58 0
 6332               		.cfi_startproc
 6333               	.LVL535:
 6334 1a0c CF93      		push r28
 6335               	.LCFI244:
 6336               		.cfi_def_cfa_offset 3
 6337               		.cfi_offset 28, -2
 6338 1a0e DF93      		push r29
 6339               	.LCFI245:
 6340               		.cfi_def_cfa_offset 4
 6341               		.cfi_offset 29, -3
 6342               	/* prologue: function */
 6343               	/* frame size = 0 */
 6344               	/* stack size = 2 */
 6345               	.L__stack_usage = 2
 6346 1a10 EC01      		movw r28,r24
 6347               	.LVL536:
 6348 1a12 0896      		adiw r24,8
 6349               	.LVL537:
 6350               		.loc 8 58 0
 6351 1a14 FE01      		movw r30,r28
 6352               	.LVL538:
 6353               	.L578:
 6354               	.LBB98:
  59:Proj_3E.c     **** 	char keypress;												//library version does not.
  60:Proj_3E.c     **** 	for(int n = 0; n<=7; n++) digits[n] = 0; 					//Clear array
 6355               		.loc 8 60 0 discriminator 3
 6356 1a16 1192      		st Z+,__zero_reg__
 6357               	.LVL539:
 6358 1a18 E817      		cp r30,r24
 6359 1a1a F907      		cpc r31,r25
 6360 1a1c 01F4      		brne .L578
 6361               	.LBE98:
  61:Proj_3E.c     **** 	String_to_PC("Echo keypresses ");
 6362               		.loc 8 61 0
 6363 1a1e 80E0      		ldi r24,lo8(.LC5)
 6364 1a20 90E0      		ldi r25,hi8(.LC5)
 6365 1a22 0E94 0000 		call String_to_PC
 6366               	.LVL540:
 6367               	.L579:
  62:Proj_3E.c     **** 	do
  63:Proj_3E.c     **** 	{keypress =  waitforkeypress();}							//wait for first keypress
 6368               		.loc 8 63 0 discriminator 1
 6369 1a26 0E94 0000 		call waitforkeypress
 6370               	.LVL541:
 6371               	.LBB99:
 6372               	.LBB100:
 134:../../../Resources_V12/Subroutines/Basic_PC_comms.c **** else return 1;}
 6373               		.loc 2 134 0 discriminator 1
 6374 1a2a 90ED      		ldi r25,lo8(-48)
 6375 1a2c 980F      		add r25,r24
 6376 1a2e 9A30      		cpi r25,lo8(10)
 6377 1a30 00F4      		brsh .L579
 6378               	.LVL542:
 6379               	.L590:
 6380               	.LBE100:
 6381               	.LBE99:
  64:Proj_3E.c     **** 	while (!(decimal_digit(keypress)));						//Ignore illegal characters
  65:Proj_3E.c     **** 	digits[0] = keypress;										//Save first one to array
  66:Proj_3E.c     **** 	Char_to_PC(digits[0]);
  67:Proj_3E.c     **** 	I2C_Tx_8_byte_array(digits);								//send array to display
  68:Proj_3E.c     **** 
  69:Proj_3E.c     **** 	while ((keypress = wait_for_return_key()) != '\r'){		//Continue until return key is pressed
  70:Proj_3E.c     **** 
  71:Proj_3E.c     **** 		if (decimal_digit (keypress))								//Ignore illegal characters
  72:Proj_3E.c     **** 		{for(int n = 7; n>=1; n--)digits[n] = digits[n-1];		//Shifts display left for each keypress
  73:Proj_3E.c     **** 			digits[0] = keypress;										//Places new digit in array[0]
 6382               		.loc 8 73 0
 6383 1a32 8883      		st Y,r24
  74:Proj_3E.c     **** 			Char_to_PC(digits[0]);										//Updates the PC
 6384               		.loc 8 74 0
 6385 1a34 0E94 0000 		call Char_to_PC
 6386               	.LVL543:
  75:Proj_3E.c     **** 		I2C_Tx_8_byte_array(digits);}}								//Updates the display
 6387               		.loc 8 75 0
 6388 1a38 CE01      		movw r24,r28
 6389 1a3a 0E94 0000 		call I2C_Tx_8_byte_array
 6390               	.LVL544:
 6391               	.L581:
  69:Proj_3E.c     **** 
 6392               		.loc 8 69 0
 6393 1a3e 0E94 0000 		call wait_for_return_key
 6394               	.LVL545:
 6395 1a42 8D30      		cpi r24,lo8(13)
 6396 1a44 01F0      		breq .L591
 6397               	.LVL546:
 6398               	.LBB101:
 6399               	.LBB102:
 134:../../../Resources_V12/Subroutines/Basic_PC_comms.c **** else return 1;}
 6400               		.loc 2 134 0
 6401 1a46 90ED      		ldi r25,lo8(-48)
 6402 1a48 980F      		add r25,r24
 6403 1a4a 9A30      		cpi r25,lo8(10)
 6404 1a4c 00F4      		brsh .L581
 6405 1a4e FE01      		movw r30,r28
 6406 1a50 3796      		adiw r30,7
 6407               	.L582:
 6408               	.LVL547:
 6409               	.LBE102:
 6410               	.LBE101:
 6411               	.LBB103:
  72:Proj_3E.c     **** 			digits[0] = keypress;										//Places new digit in array[0]
 6412               		.loc 8 72 0 discriminator 3
 6413 1a52 9291      		ld r25,-Z
 6414               	.LVL548:
 6415 1a54 9183      		std Z+1,r25
 6416               	.LVL549:
 6417 1a56 CE17      		cp r28,r30
 6418 1a58 DF07      		cpc r29,r31
 6419 1a5a 01F4      		brne .L582
 6420 1a5c 00C0      		rjmp .L590
 6421               	.LVL550:
 6422               	.L591:
 6423               	.LBE103:
  76:Proj_3E.c     **** 		newline();
 6424               		.loc 8 76 0
 6425 1a5e 0E94 0000 		call newline
 6426               	.LVL551:
  77:Proj_3E.c     **** 		String_to_PC("Number entered   ");
 6427               		.loc 8 77 0
 6428 1a62 80E0      		ldi r24,lo8(.LC6)
 6429 1a64 90E0      		ldi r25,hi8(.LC6)
 6430 1a66 0E94 0000 		call String_to_PC
 6431               	.LVL552:
 6432               	/* epilogue start */
  78:Proj_3E.c     **** 	return I2C_displayToNum();}
 6433               		.loc 8 78 0
 6434 1a6a DF91      		pop r29
 6435 1a6c CF91      		pop r28
 6436               	.LVL553:
 6437 1a6e 0C94 0000 		jmp I2C_displayToNum
 6438               	.LVL554:
 6439               		.cfi_endproc
 6440               	.LFE71:
 6442               		.section	.rodata.str1.1
 6443               	.LC7:
 6444 0036 2045 2000 		.string	" E "
 6445               		.text
 6446               	.global	display_in_scientific_notation
 6448               	display_in_scientific_notation:
 6449               	.LFB72:
  79:Proj_3E.c     **** 
  80:Proj_3E.c     **** 
  81:Proj_3E.c     **** 
  82:Proj_3E.c     **** 
  83:Proj_3E.c     **** 	/******************************************************************************************/
  84:Proj_3E.c     **** 	void display_in_scientific_notation(long Numerator,  char digits[], char mode){
 6450               		.loc 8 84 0
 6451               		.cfi_startproc
 6452               	.LVL555:
 6453 1a72 2F92      		push r2
 6454               	.LCFI246:
 6455               		.cfi_def_cfa_offset 3
 6456               		.cfi_offset 2, -2
 6457 1a74 3F92      		push r3
 6458               	.LCFI247:
 6459               		.cfi_def_cfa_offset 4
 6460               		.cfi_offset 3, -3
 6461 1a76 4F92      		push r4
 6462               	.LCFI248:
 6463               		.cfi_def_cfa_offset 5
 6464               		.cfi_offset 4, -4
 6465 1a78 5F92      		push r5
 6466               	.LCFI249:
 6467               		.cfi_def_cfa_offset 6
 6468               		.cfi_offset 5, -5
 6469 1a7a 6F92      		push r6
 6470               	.LCFI250:
 6471               		.cfi_def_cfa_offset 7
 6472               		.cfi_offset 6, -6
 6473 1a7c 7F92      		push r7
 6474               	.LCFI251:
 6475               		.cfi_def_cfa_offset 8
 6476               		.cfi_offset 7, -7
 6477 1a7e 8F92      		push r8
 6478               	.LCFI252:
 6479               		.cfi_def_cfa_offset 9
 6480               		.cfi_offset 8, -8
 6481 1a80 9F92      		push r9
 6482               	.LCFI253:
 6483               		.cfi_def_cfa_offset 10
 6484               		.cfi_offset 9, -9
 6485 1a82 AF92      		push r10
 6486               	.LCFI254:
 6487               		.cfi_def_cfa_offset 11
 6488               		.cfi_offset 10, -10
 6489 1a84 BF92      		push r11
 6490               	.LCFI255:
 6491               		.cfi_def_cfa_offset 12
 6492               		.cfi_offset 11, -11
 6493 1a86 CF92      		push r12
 6494               	.LCFI256:
 6495               		.cfi_def_cfa_offset 13
 6496               		.cfi_offset 12, -12
 6497 1a88 DF92      		push r13
 6498               	.LCFI257:
 6499               		.cfi_def_cfa_offset 14
 6500               		.cfi_offset 13, -13
 6501 1a8a EF92      		push r14
 6502               	.LCFI258:
 6503               		.cfi_def_cfa_offset 15
 6504               		.cfi_offset 14, -14
 6505 1a8c FF92      		push r15
 6506               	.LCFI259:
 6507               		.cfi_def_cfa_offset 16
 6508               		.cfi_offset 15, -15
 6509 1a8e 0F93      		push r16
 6510               	.LCFI260:
 6511               		.cfi_def_cfa_offset 17
 6512               		.cfi_offset 16, -16
 6513 1a90 1F93      		push r17
 6514               	.LCFI261:
 6515               		.cfi_def_cfa_offset 18
 6516               		.cfi_offset 17, -17
 6517 1a92 CF93      		push r28
 6518               	.LCFI262:
 6519               		.cfi_def_cfa_offset 19
 6520               		.cfi_offset 28, -18
 6521 1a94 DF93      		push r29
 6522               	.LCFI263:
 6523               		.cfi_def_cfa_offset 20
 6524               		.cfi_offset 29, -19
 6525 1a96 00D0      		rcall .
 6526 1a98 00D0      		rcall .
 6527               	.LCFI264:
 6528               		.cfi_def_cfa_offset 24
 6529 1a9a CDB7      		in r28,__SP_L__
 6530 1a9c DEB7      		in r29,__SP_H__
 6531               	.LCFI265:
 6532               		.cfi_def_cfa_register 28
 6533               	/* prologue: function */
 6534               	/* frame size = 4 */
 6535               	/* stack size = 22 */
 6536               	.L__stack_usage = 22
 6537 1a9e 6B01      		movw r12,r22
 6538 1aa0 7C01      		movw r14,r24
 6539 1aa2 5C83      		std Y+4,r21
 6540 1aa4 4B83      		std Y+3,r20
 6541 1aa6 122F      		mov r17,r18
 6542               	.LVL556:
  85:Proj_3E.c     **** 
  86:Proj_3E.c     **** 		long digit, denominator=1;
  87:Proj_3E.c     **** 		int m=6, n=0;
  88:Proj_3E.c     **** 		char exp=0;
 6543               		.loc 8 88 0
 6544 1aa8 1982      		std Y+1,__zero_reg__
  89:Proj_3E.c     **** 
  90:Proj_3E.c     **** 		while (Numerator >= 1000000000){Numerator /=10; exp++;}		//Avoid overflow of denominator
 6545               		.loc 8 90 0
 6546 1aaa 2AE0      		ldi r18,lo8(10)
 6547 1aac 822E      		mov r8,r18
 6548 1aae 912C      		mov r9,__zero_reg__
 6549 1ab0 A12C      		mov r10,__zero_reg__
 6550 1ab2 B12C      		mov r11,__zero_reg__
 6551               	.LVL557:
 6552               	.L593:
 6553               		.loc 8 90 0 is_stmt 0 discriminator 1
 6554 1ab4 C114      		cp r12,__zero_reg__
 6555 1ab6 EAEC      		ldi r30,-54
 6556 1ab8 DE06      		cpc r13,r30
 6557 1aba EAE9      		ldi r30,-102
 6558 1abc EE06      		cpc r14,r30
 6559 1abe EBE3      		ldi r30,59
 6560 1ac0 FE06      		cpc r15,r30
 6561 1ac2 04F0      		brlt .L613
 6562               	.LVL558:
 6563               		.loc 8 90 0 discriminator 2
 6564 1ac4 C701      		movw r24,r14
 6565 1ac6 B601      		movw r22,r12
 6566 1ac8 A501      		movw r20,r10
 6567 1aca 9401      		movw r18,r8
 6568 1acc 0E94 0000 		call __divmodsi4
 6569               	.LVL559:
 6570 1ad0 6901      		movw r12,r18
 6571 1ad2 7A01      		movw r14,r20
 6572 1ad4 8981      		ldd r24,Y+1
 6573 1ad6 8F5F      		subi r24,lo8(-(1))
 6574 1ad8 8983      		std Y+1,r24
 6575               	.LVL560:
 6576 1ada 00C0      		rjmp .L593
 6577               	.LVL561:
 6578               	.L613:
 6579 1adc EB81      		ldd r30,Y+3
 6580 1ade FC81      		ldd r31,Y+4
 6581 1ae0 CF01      		movw r24,r30
 6582 1ae2 0896      		adiw r24,8
 6583               	.L595:
 6584               	.LVL562:
 6585               	.LBB104:
  91:Proj_3E.c     **** 
  92:Proj_3E.c     **** 		clear_digits;													//For each number, generate a denominator (such as 1,10,100 etc)
 6586               		.loc 8 92 0 is_stmt 1 discriminator 3
 6587 1ae4 1192      		st Z+,__zero_reg__
 6588               	.LVL563:
 6589 1ae6 E817      		cp r30,r24
 6590 1ae8 F907      		cpc r31,r25
 6591 1aea 01F4      		brne .L595
 6592               	.LBE104:
  93:Proj_3E.c     **** 		if(!(Numerator)){Char_to_PC('0');return;}						//and corresponding exponent
 6593               		.loc 8 93 0
 6594 1aec C114      		cp r12,__zero_reg__
 6595 1aee D104      		cpc r13,__zero_reg__
 6596 1af0 E104      		cpc r14,__zero_reg__
 6597 1af2 F104      		cpc r15,__zero_reg__
 6598 1af4 01F0      		breq .L596
 6599 1af6 812C      		mov r8,__zero_reg__
 6600 1af8 912C      		mov r9,__zero_reg__
 6601 1afa 5401      		movw r10,r8
 6602 1afc 8394      		inc r8
 6603 1afe 00C0      		rjmp .L597
 6604               	.L596:
 6605               		.loc 8 93 0 is_stmt 0 discriminator 1
 6606 1b00 80E3      		ldi r24,lo8(48)
 6607               	/* epilogue start */
  94:Proj_3E.c     **** 		while(denominator <= Numerator)									//The denominator should have one zero for each digit in 
  95:Proj_3E.c     **** 		{denominator *=10; exp++;}										//10 to the power of the exponent should equal the denominato
  96:Proj_3E.c     **** 		if(mode){denominator /= 10;	exp--;}							//If this line is omitted the 1234 is converted to the 
  97:Proj_3E.c     **** 		n = exp;														//rather than 1.234 E3
  98:Proj_3E.c     **** 
  99:Proj_3E.c     **** 
 100:Proj_3E.c     **** 		digits[7]=Numerator/denominator + '0';
 101:Proj_3E.c     **** 		digits[6] = '_';												//place first digit followed by a decimal point in the "data array"
 102:Proj_3E.c     **** 		Numerator =Numerator%denominator;								//Update the numerator
 103:Proj_3E.c     **** 		Char_to_PC(digits[7]);											//Send data to pc
 104:Proj_3E.c     **** 		Char_to_PC('.');
 105:Proj_3E.c     **** 
 106:Proj_3E.c     **** 
 107:Proj_3E.c     **** 		if(!(n)){digits[5] = '0';										//Tidy up display if exponent is zero
 108:Proj_3E.c     **** 		Char_to_PC('0');}
 109:Proj_3E.c     **** 
 110:Proj_3E.c     **** 		while(n){														//Only calculate significant decimal places
 111:Proj_3E.c     **** 			if (Numerator >= 0xCCCCCCC)
 112:Proj_3E.c     **** 			{Numerator /= 10; denominator /=10;}							//0xCCCCCCC x 10 0x7FFF FFF8
 113:Proj_3E.c     **** 			digit = (Numerator *10/denominator);
 114:Proj_3E.c     **** 			Numerator = ((Numerator *10)%denominator);						//check with pencil and paper
 115:Proj_3E.c     **** 
 116:Proj_3E.c     **** 			Char_to_PC(digit+'0');
 117:Proj_3E.c     **** 			if(m){digits[m-1] = (digit+'0');m--;							//Update the display: six characters max
 118:Proj_3E.c     **** 				I2C_Tx_8_byte_array(digits);
 119:Proj_3E.c     **** 			Timer_T0_10mS_delay_x_m(12);}
 120:Proj_3E.c     **** 			Timer_T0_10mS_delay_x_m(6);
 121:Proj_3E.c     **** 		n--;}
 122:Proj_3E.c     **** 
 123:Proj_3E.c     **** 		String_to_PC(" E ");Num_to_PC(10, exp);
 124:Proj_3E.c     **** 		digits[0] = exp +'0';											//Overwrite the two LSBs of the display
 125:Proj_3E.c     **** 		digits[1] = 'X';												//Displays 'E'.
 126:Proj_3E.c     **** 	I2C_Tx_8_byte_array(digits);}
 6608               		.loc 8 126 0 is_stmt 1 discriminator 1
 6609 1b02 0F90      		pop __tmp_reg__
 6610 1b04 0F90      		pop __tmp_reg__
 6611 1b06 0F90      		pop __tmp_reg__
 6612 1b08 0F90      		pop __tmp_reg__
 6613 1b0a DF91      		pop r29
 6614 1b0c CF91      		pop r28
 6615               	.LVL564:
 6616 1b0e 1F91      		pop r17
 6617               	.LVL565:
 6618 1b10 0F91      		pop r16
 6619               	.LVL566:
 6620 1b12 FF90      		pop r15
 6621               	.LVL567:
 6622 1b14 EF90      		pop r14
 6623               	.LVL568:
 6624 1b16 DF90      		pop r13
 6625               	.LVL569:
 6626 1b18 CF90      		pop r12
 6627               	.LVL570:
 6628 1b1a BF90      		pop r11
 6629               	.LVL571:
 6630 1b1c AF90      		pop r10
 6631               	.LVL572:
 6632 1b1e 9F90      		pop r9
 6633               	.LVL573:
 6634 1b20 8F90      		pop r8
 6635               	.LVL574:
 6636 1b22 7F90      		pop r7
 6637               	.LVL575:
 6638 1b24 6F90      		pop r6
 6639               	.LVL576:
 6640 1b26 5F90      		pop r5
 6641               	.LVL577:
 6642 1b28 4F90      		pop r4
 6643               	.LVL578:
 6644 1b2a 3F90      		pop r3
 6645               	.LVL579:
 6646 1b2c 2F90      		pop r2
 6647               	.LVL580:
  93:Proj_3E.c     **** 		if(!(Numerator)){Char_to_PC('0');return;}						//and corresponding exponent
 6648               		.loc 8 93 0 discriminator 1
 6649 1b2e 0C94 0000 		jmp Char_to_PC
 6650               	.LVL581:
 6651               	.L597:
  94:Proj_3E.c     **** 		while(denominator <= Numerator)									//The denominator should have one zero for each digit in 
 6652               		.loc 8 94 0
 6653 1b32 C814      		cp r12,r8
 6654 1b34 D904      		cpc r13,r9
 6655 1b36 EA04      		cpc r14,r10
 6656 1b38 FB04      		cpc r15,r11
 6657 1b3a 04F0      		brlt .L614
  95:Proj_3E.c     **** 		if(mode){denominator /= 10;	exp--;}							//If this line is omitted the 1234 is converted to the 
 6658               		.loc 8 95 0
 6659 1b3c AAE0      		ldi r26,lo8(10)
 6660 1b3e B0E0      		ldi r27,0
 6661 1b40 A501      		movw r20,r10
 6662 1b42 9401      		movw r18,r8
 6663 1b44 0E94 0000 		call __muluhisi3
 6664 1b48 4B01      		movw r8,r22
 6665 1b4a 5C01      		movw r10,r24
 6666               	.LVL582:
 6667 1b4c F981      		ldd r31,Y+1
 6668 1b4e FF5F      		subi r31,lo8(-(1))
 6669 1b50 F983      		std Y+1,r31
 6670               	.LVL583:
 6671 1b52 00C0      		rjmp .L597
 6672               	.LVL584:
 6673               	.L614:
  96:Proj_3E.c     **** 		n = exp;														//rather than 1.234 E3
 6674               		.loc 8 96 0
 6675 1b54 1123      		tst r17
 6676 1b56 01F0      		breq .L599
  96:Proj_3E.c     **** 		n = exp;														//rather than 1.234 E3
 6677               		.loc 8 96 0 is_stmt 0 discriminator 1
 6678 1b58 C501      		movw r24,r10
 6679 1b5a B401      		movw r22,r8
 6680 1b5c 2AE0      		ldi r18,lo8(10)
 6681 1b5e 30E0      		ldi r19,0
 6682 1b60 40E0      		ldi r20,0
 6683 1b62 50E0      		ldi r21,0
 6684 1b64 0E94 0000 		call __divmodsi4
 6685               	.LVL585:
 6686 1b68 4901      		movw r8,r18
 6687 1b6a 5A01      		movw r10,r20
 6688               	.LVL586:
 6689 1b6c 8981      		ldd r24,Y+1
 6690 1b6e 8150      		subi r24,lo8(-(-1))
 6691 1b70 8983      		std Y+1,r24
 6692               	.LVL587:
 6693               	.L599:
  97:Proj_3E.c     **** 
 6694               		.loc 8 97 0 is_stmt 1
 6695 1b72 E981      		ldd r30,Y+1
 6696 1b74 2E2E      		mov r2,r30
 6697 1b76 312C      		mov r3,__zero_reg__
 6698               	.LVL588:
 100:Proj_3E.c     **** 		digits[6] = '_';												//place first digit followed by a decimal point in the "data array"
 6699               		.loc 8 100 0
 6700 1b78 C701      		movw r24,r14
 6701 1b7a B601      		movw r22,r12
 6702 1b7c A501      		movw r20,r10
 6703 1b7e 9401      		movw r18,r8
 6704 1b80 0E94 0000 		call __divmodsi4
 6705 1b84 3B01      		movw r6,r22
 6706 1b86 8C01      		movw r16,r24
 6707 1b88 80E3      		ldi r24,lo8(48)
 6708 1b8a 820F      		add r24,r18
 6709 1b8c EB81      		ldd r30,Y+3
 6710 1b8e FC81      		ldd r31,Y+4
 6711 1b90 8783      		std Z+7,r24
 101:Proj_3E.c     **** 		Numerator =Numerator%denominator;								//Update the numerator
 6712               		.loc 8 101 0
 6713 1b92 9FE5      		ldi r25,lo8(95)
 6714 1b94 9683      		std Z+6,r25
 6715               	.LVL589:
 103:Proj_3E.c     **** 		Char_to_PC('.');
 6716               		.loc 8 103 0
 6717 1b96 0E94 0000 		call Char_to_PC
 6718               	.LVL590:
 104:Proj_3E.c     **** 
 6719               		.loc 8 104 0
 6720 1b9a 8EE2      		ldi r24,lo8(46)
 6721 1b9c 0E94 0000 		call Char_to_PC
 6722               	.LVL591:
 107:Proj_3E.c     **** 		Char_to_PC('0');}
 6723               		.loc 8 107 0
 6724 1ba0 2114      		cp r2,__zero_reg__
 6725 1ba2 3104      		cpc r3,__zero_reg__
 6726 1ba4 01F4      		brne .L600
 107:Proj_3E.c     **** 		Char_to_PC('0');}
 6727               		.loc 8 107 0 is_stmt 0 discriminator 1
 6728 1ba6 80E3      		ldi r24,lo8(48)
 6729 1ba8 EB81      		ldd r30,Y+3
 6730 1baa FC81      		ldd r31,Y+4
 6731 1bac 8583      		std Z+5,r24
 108:Proj_3E.c     **** 
 6732               		.loc 8 108 0 is_stmt 1 discriminator 1
 6733 1bae 0E94 0000 		call Char_to_PC
 6734               	.LVL592:
 6735 1bb2 00C0      		rjmp .L601
 6736               	.L600:
 102:Proj_3E.c     **** 		Char_to_PC(digits[7]);											//Send data to pc
 6737               		.loc 8 102 0
 6738 1bb4 6301      		movw r12,r6
 6739               	.LVL593:
 6740 1bb6 7801      		movw r14,r16
 6741 1bb8 06E0      		ldi r16,lo8(6)
 6742 1bba 10E0      		ldi r17,0
 112:Proj_3E.c     **** 			digit = (Numerator *10/denominator);
 6743               		.loc 8 112 0
 6744 1bbc 8AE0      		ldi r24,lo8(10)
 6745 1bbe 482E      		mov r4,r24
 6746 1bc0 512C      		mov r5,__zero_reg__
 6747 1bc2 612C      		mov r6,__zero_reg__
 6748 1bc4 712C      		mov r7,__zero_reg__
 6749               	.LVL594:
 6750               	.L604:
 111:Proj_3E.c     **** 			{Numerator /= 10; denominator /=10;}							//0xCCCCCCC x 10 0x7FFF FFF8
 6751               		.loc 8 111 0
 6752 1bc6 FCEC      		ldi r31,-52
 6753 1bc8 CF16      		cp r12,r31
 6754 1bca DF06      		cpc r13,r31
 6755 1bcc EF06      		cpc r14,r31
 6756 1bce FCE0      		ldi r31,12
 6757 1bd0 FF06      		cpc r15,r31
 6758 1bd2 04F0      		brlt .L602
 112:Proj_3E.c     **** 			digit = (Numerator *10/denominator);
 6759               		.loc 8 112 0
 6760 1bd4 C701      		movw r24,r14
 6761 1bd6 B601      		movw r22,r12
 6762 1bd8 A301      		movw r20,r6
 6763 1bda 9201      		movw r18,r4
 6764 1bdc 0E94 0000 		call __divmodsi4
 6765 1be0 6901      		movw r12,r18
 6766 1be2 7A01      		movw r14,r20
 6767               	.LVL595:
 6768 1be4 C501      		movw r24,r10
 6769 1be6 B401      		movw r22,r8
 6770 1be8 A301      		movw r20,r6
 6771 1bea 9201      		movw r18,r4
 6772 1bec 0E94 0000 		call __divmodsi4
 6773 1bf0 4901      		movw r8,r18
 6774 1bf2 5A01      		movw r10,r20
 6775               	.LVL596:
 6776               	.L602:
 113:Proj_3E.c     **** 			Numerator = ((Numerator *10)%denominator);						//check with pencil and paper
 6777               		.loc 8 113 0
 6778 1bf4 AAE0      		ldi r26,lo8(10)
 6779 1bf6 B0E0      		ldi r27,0
 6780 1bf8 A701      		movw r20,r14
 6781 1bfa 9601      		movw r18,r12
 6782 1bfc 0E94 0000 		call __muluhisi3
 6783               	.LVL597:
 114:Proj_3E.c     **** 
 6784               		.loc 8 114 0
 6785 1c00 A501      		movw r20,r10
 6786 1c02 9401      		movw r18,r8
 6787 1c04 0E94 0000 		call __divmodsi4
 6788               	.LVL598:
 6789 1c08 6B01      		movw r12,r22
 6790 1c0a 7C01      		movw r14,r24
 6791               	.LVL599:
 116:Proj_3E.c     **** 			if(m){digits[m-1] = (digit+'0');m--;							//Update the display: six characters max
 6792               		.loc 8 116 0
 6793 1c0c 205D      		subi r18,lo8(-(48))
 6794               	.LVL600:
 6795 1c0e 2A83      		std Y+2,r18
 6796 1c10 822F      		mov r24,r18
 6797 1c12 0E94 0000 		call Char_to_PC
 6798               	.LVL601:
 117:Proj_3E.c     **** 				I2C_Tx_8_byte_array(digits);
 6799               		.loc 8 117 0
 6800 1c16 0115      		cp r16,__zero_reg__
 6801 1c18 1105      		cpc r17,__zero_reg__
 6802 1c1a 01F0      		breq .L603
 117:Proj_3E.c     **** 				I2C_Tx_8_byte_array(digits);
 6803               		.loc 8 117 0 is_stmt 0 discriminator 1
 6804 1c1c EB81      		ldd r30,Y+3
 6805 1c1e FC81      		ldd r31,Y+4
 6806 1c20 E00F      		add r30,r16
 6807 1c22 F11F      		adc r31,r17
 6808 1c24 3197      		sbiw r30,1
 6809 1c26 8A81      		ldd r24,Y+2
 6810 1c28 8083      		st Z,r24
 6811 1c2a 0150      		subi r16,1
 6812 1c2c 1109      		sbc r17,__zero_reg__
 6813               	.LVL602:
 118:Proj_3E.c     **** 			Timer_T0_10mS_delay_x_m(12);}
 6814               		.loc 8 118 0 is_stmt 1 discriminator 1
 6815 1c2e 8B81      		ldd r24,Y+3
 6816 1c30 9C81      		ldd r25,Y+4
 6817 1c32 0E94 0000 		call I2C_Tx_8_byte_array
 6818               	.LVL603:
 119:Proj_3E.c     **** 			Timer_T0_10mS_delay_x_m(6);
 6819               		.loc 8 119 0 discriminator 1
 6820 1c36 8CE0      		ldi r24,lo8(12)
 6821 1c38 90E0      		ldi r25,0
 6822 1c3a 0E94 0000 		call Timer_T0_10mS_delay_x_m
 6823               	.LVL604:
 6824               	.L603:
 120:Proj_3E.c     **** 		n--;}
 6825               		.loc 8 120 0
 6826 1c3e 86E0      		ldi r24,lo8(6)
 6827 1c40 90E0      		ldi r25,0
 6828 1c42 0E94 0000 		call Timer_T0_10mS_delay_x_m
 6829               	.LVL605:
 121:Proj_3E.c     **** 
 6830               		.loc 8 121 0
 6831 1c46 E1E0      		ldi r30,1
 6832 1c48 2E1A      		sub r2,r30
 6833 1c4a 3108      		sbc r3,__zero_reg__
 6834               	.LVL606:
 110:Proj_3E.c     **** 			if (Numerator >= 0xCCCCCCC)
 6835               		.loc 8 110 0
 6836 1c4c 01F0      		breq .+2
 6837 1c4e 00C0      		rjmp .L604
 6838               	.LVL607:
 6839               	.L601:
 123:Proj_3E.c     **** 		digits[0] = exp +'0';											//Overwrite the two LSBs of the display
 6840               		.loc 8 123 0
 6841 1c50 80E0      		ldi r24,lo8(.LC7)
 6842 1c52 90E0      		ldi r25,hi8(.LC7)
 6843 1c54 0E94 0000 		call String_to_PC
 6844               	.LVL608:
 6845 1c58 F981      		ldd r31,Y+1
 6846 1c5a 4F2F      		mov r20,r31
 6847 1c5c 50E0      		ldi r21,0
 6848 1c5e 60E0      		ldi r22,0
 6849 1c60 70E0      		ldi r23,0
 6850 1c62 8AE0      		ldi r24,lo8(10)
 6851 1c64 0E94 0000 		call Num_to_PC
 6852               	.LVL609:
 124:Proj_3E.c     **** 		digits[1] = 'X';												//Displays 'E'.
 6853               		.loc 8 124 0
 6854 1c68 8981      		ldd r24,Y+1
 6855 1c6a 805D      		subi r24,lo8(-(48))
 6856 1c6c EB81      		ldd r30,Y+3
 6857 1c6e FC81      		ldd r31,Y+4
 6858 1c70 8083      		st Z,r24
 125:Proj_3E.c     **** 	I2C_Tx_8_byte_array(digits);}
 6859               		.loc 8 125 0
 6860 1c72 88E5      		ldi r24,lo8(88)
 6861 1c74 8183      		std Z+1,r24
 6862               		.loc 8 126 0
 6863 1c76 CF01      		movw r24,r30
 6864               	/* epilogue start */
 6865 1c78 0F90      		pop __tmp_reg__
 6866 1c7a 0F90      		pop __tmp_reg__
 6867 1c7c 0F90      		pop __tmp_reg__
 6868 1c7e 0F90      		pop __tmp_reg__
 6869 1c80 DF91      		pop r29
 6870 1c82 CF91      		pop r28
 6871               	.LVL610:
 6872 1c84 1F91      		pop r17
 6873               	.LVL611:
 6874 1c86 0F91      		pop r16
 6875               	.LVL612:
 6876 1c88 FF90      		pop r15
 6877               	.LVL613:
 6878 1c8a EF90      		pop r14
 6879               	.LVL614:
 6880 1c8c DF90      		pop r13
 6881               	.LVL615:
 6882 1c8e CF90      		pop r12
 6883               	.LVL616:
 6884 1c90 BF90      		pop r11
 6885               	.LVL617:
 6886 1c92 AF90      		pop r10
 6887               	.LVL618:
 6888 1c94 9F90      		pop r9
 6889               	.LVL619:
 6890 1c96 8F90      		pop r8
 6891               	.LVL620:
 6892 1c98 7F90      		pop r7
 6893               	.LVL621:
 6894 1c9a 6F90      		pop r6
 6895               	.LVL622:
 6896 1c9c 5F90      		pop r5
 6897               	.LVL623:
 6898 1c9e 4F90      		pop r4
 6899               	.LVL624:
 6900 1ca0 3F90      		pop r3
 6901               	.LVL625:
 6902 1ca2 2F90      		pop r2
 6903               	.LVL626:
 6904 1ca4 0C94 0000 		jmp I2C_Tx_8_byte_array
 6905               	.LVL627:
 6906               		.cfi_endproc
 6907               	.LFE72:
 6909               	.global	Divide_and_round
 6911               	Divide_and_round:
 6912               	.LFB73:
 127:Proj_3E.c     **** 
 128:Proj_3E.c     **** 
 129:Proj_3E.c     **** 
 130:Proj_3E.c     **** 
 131:Proj_3E.c     **** 	/******************************************************************************************/
 132:Proj_3E.c     **** 	long Divide_and_round(long A, int B){
 6913               		.loc 8 132 0
 6914               		.cfi_startproc
 6915               	.LVL628:
 6916 1ca8 8F92      		push r8
 6917               	.LCFI266:
 6918               		.cfi_def_cfa_offset 3
 6919               		.cfi_offset 8, -2
 6920 1caa 9F92      		push r9
 6921               	.LCFI267:
 6922               		.cfi_def_cfa_offset 4
 6923               		.cfi_offset 9, -3
 6924 1cac AF92      		push r10
 6925               	.LCFI268:
 6926               		.cfi_def_cfa_offset 5
 6927               		.cfi_offset 10, -4
 6928 1cae BF92      		push r11
 6929               	.LCFI269:
 6930               		.cfi_def_cfa_offset 6
 6931               		.cfi_offset 11, -5
 6932 1cb0 CF92      		push r12
 6933               	.LCFI270:
 6934               		.cfi_def_cfa_offset 7
 6935               		.cfi_offset 12, -6
 6936 1cb2 DF92      		push r13
 6937               	.LCFI271:
 6938               		.cfi_def_cfa_offset 8
 6939               		.cfi_offset 13, -7
 6940 1cb4 EF92      		push r14
 6941               	.LCFI272:
 6942               		.cfi_def_cfa_offset 9
 6943               		.cfi_offset 14, -8
 6944 1cb6 FF92      		push r15
 6945               	.LCFI273:
 6946               		.cfi_def_cfa_offset 10
 6947               		.cfi_offset 15, -9
 6948               	/* prologue: function */
 6949               	/* frame size = 0 */
 6950               	/* stack size = 8 */
 6951               	.L__stack_usage = 8
 133:Proj_3E.c     **** 		long result;
 134:Proj_3E.c     **** 		int error;
 135:Proj_3E.c     **** 		result = A/B;
 6952               		.loc 8 135 0
 6953 1cb8 6A01      		movw r12,r20
 6954 1cba 550F      		lsl r21
 6955 1cbc EE08      		sbc r14,r14
 6956 1cbe FF08      		sbc r15,r15
 6957 1cc0 A701      		movw r20,r14
 6958 1cc2 9601      		movw r18,r12
 6959 1cc4 0E94 0000 		call __divmodsi4
 6960               	.LVL629:
 6961 1cc8 4901      		movw r8,r18
 6962 1cca 5A01      		movw r10,r20
 6963 1ccc 9B01      		movw r18,r22
 6964 1cce AC01      		movw r20,r24
 6965               	.LVL630:
 136:Proj_3E.c     **** 		error = (A%B)*10/B;
 137:Proj_3E.c     **** 		if (error > 5) result += 1;
 6966               		.loc 8 137 0
 6967 1cd0 AAE0      		ldi r26,lo8(10)
 6968 1cd2 B0E0      		ldi r27,0
 6969 1cd4 0E94 0000 		call __muluhisi3
 6970 1cd8 A701      		movw r20,r14
 6971 1cda 9601      		movw r18,r12
 6972 1cdc 0E94 0000 		call __divmodsi4
 6973 1ce0 2630      		cpi r18,6
 6974 1ce2 3105      		cpc r19,__zero_reg__
 6975 1ce4 04F0      		brlt .L616
 6976               		.loc 8 137 0 is_stmt 0 discriminator 1
 6977 1ce6 8FEF      		ldi r24,-1
 6978 1ce8 881A      		sub r8,r24
 6979 1cea 980A      		sbc r9,r24
 6980 1cec A80A      		sbc r10,r24
 6981 1cee B80A      		sbc r11,r24
 6982               	.LVL631:
 6983               	.L616:
 138:Proj_3E.c     **** 	return result;}
 6984               		.loc 8 138 0 is_stmt 1
 6985 1cf0 C501      		movw r24,r10
 6986 1cf2 B401      		movw r22,r8
 6987               	/* epilogue start */
 6988 1cf4 FF90      		pop r15
 6989 1cf6 EF90      		pop r14
 6990 1cf8 DF90      		pop r13
 6991 1cfa CF90      		pop r12
 6992               	.LVL632:
 6993 1cfc BF90      		pop r11
 6994 1cfe AF90      		pop r10
 6995 1d00 9F90      		pop r9
 6996 1d02 8F90      		pop r8
 6997               	.LVL633:
 6998 1d04 0895      		ret
 6999               		.cfi_endproc
 7000               	.LFE73:
 7002               		.section	.rodata.str1.1
 7003               	.LC8:
 7004 003a 523F 2020 		.string	"R?    "
 7004      2020 00
 7005               	.LC9:
 7006 0041 456E 7465 		.string	"Enter positive number & terminate with Return key.\r\n"
 7006      7220 706F 
 7006      7369 7469 
 7006      7665 206E 
 7006      756D 6265 
 7007               	.LC10:
 7008 0076 5363 6965 		.string	"Scientific notation  "
 7008      6E74 6966 
 7008      6963 206E 
 7008      6F74 6174 
 7008      696F 6E20 
 7009               	.LC11:
 7010 008c 203D 2000 		.string	" = "
 7011               	.LC12:
 7012 0090 5A65 726F 		.string	"Zero"
 7012      00
 7013               	.LC13:
 7014 0095 2078 2000 		.string	" x "
 7015               	.LC14:
 7016 0099 202F 2000 		.string	" / "
 7017               		.section	.text.startup,"ax",@progbits
 7018               	.global	main
 7020               	main:
 7021               	.LFB70:
  13:Proj_3E.c     **** 	long Num_1;
 7022               		.loc 8 13 0
 7023               		.cfi_startproc
 7024 0000 CF93      		push r28
 7025               	.LCFI274:
 7026               		.cfi_def_cfa_offset 3
 7027               		.cfi_offset 28, -2
 7028 0002 DF93      		push r29
 7029               	.LCFI275:
 7030               		.cfi_def_cfa_offset 4
 7031               		.cfi_offset 29, -3
 7032 0004 CDB7      		in r28,__SP_L__
 7033 0006 DEB7      		in r29,__SP_H__
 7034               	.LCFI276:
 7035               		.cfi_def_cfa_register 28
 7036 0008 2897      		sbiw r28,8
 7037               	.LCFI277:
 7038               		.cfi_def_cfa_offset 12
 7039 000a 0FB6      		in __tmp_reg__,__SREG__
 7040 000c F894      		cli
 7041 000e DEBF      		out __SP_H__,r29
 7042 0010 0FBE      		out __SREG__,__tmp_reg__
 7043 0012 CDBF      		out __SP_L__,r28
 7044               	/* prologue: function */
 7045               	/* frame size = 8 */
 7046               	/* stack size = 10 */
 7047               	.L__stack_usage = 10
  19:Proj_3E.c     **** 	User_prompt;
 7048               		.loc 8 19 0
 7049 0014 04B6      		in __tmp_reg__,0x34
 7050 0016 03FE      		sbrs __tmp_reg__,3
 7051 0018 00C0      		rjmp .L618
  19:Proj_3E.c     **** 	User_prompt;
 7052               		.loc 8 19 0 is_stmt 0 discriminator 1
 7053 001a 81E0      		ldi r24,lo8(1)
 7054 001c 8093 0000 		sts watch_dog_reset,r24
 7055               	.L618:
  19:Proj_3E.c     **** 	User_prompt;
 7056               		.loc 8 19 0 discriminator 3
 7057               	/* #APP */
 7058               	 ;  19 "Proj_3E.c" 1
 7059 0020 A895      		wdr
 7060               	 ;  0 "" 2
 7061               	/* #NOAPP */
 7062 0022 84B7      		in r24,0x34
 7063 0024 877F      		andi r24,lo8(-9)
 7064 0026 84BF      		out 0x34,r24
 7065 0028 8091 6000 		lds r24,96
 7066 002c 8861      		ori r24,lo8(24)
 7067 002e 8093 6000 		sts 96,r24
 7068 0032 1092 6000 		sts 96,__zero_reg__
 7069 0036 82E0      		ldi r24,lo8(2)
 7070 0038 8093 BA00 		sts 186,r24
 7071 003c 8091 7C00 		lds r24,124
 7072 0040 8064      		ori r24,lo8(64)
 7073 0042 8093 7C00 		sts 124,r24
 7074 0046 85B7      		in r24,0x35
 7075 0048 8F7E      		andi r24,lo8(-17)
 7076 004a 85BF      		out 0x35,r24
 7077 004c 8AB1      		in r24,0xa
 7078 004e 8B77      		andi r24,lo8(123)
 7079 0050 8AB9      		out 0xa,r24
 7080 0052 8BB1      		in r24,0xb
 7081 0054 8468      		ori r24,lo8(-124)
 7082 0056 8BB9      		out 0xb,r24
 7083 0058 2698      		cbi 0x4,6
 7084 005a 2E9A      		sbi 0x5,6
 7085 005c 85B7      		in r24,0x35
 7086 005e 8F7E      		andi r24,lo8(-17)
 7087 0060 85BF      		out 0x35,r24
 7088 0062 84B1      		in r24,0x4
 7089 0064 8B77      		andi r24,lo8(123)
 7090 0066 84B9      		out 0x4,r24
 7091 0068 87B1      		in r24,0x7
 7092 006a 887F      		andi r24,lo8(-8)
 7093 006c 87B9      		out 0x7,r24
 7094 006e 8AB1      		in r24,0xa
 7095 0070 8778      		andi r24,lo8(-121)
 7096 0072 8AB9      		out 0xa,r24
 7097 0074 85B1      		in r24,0x5
 7098 0076 8468      		ori r24,lo8(-124)
 7099 0078 85B9      		out 0x5,r24
 7100 007a 88B1      		in r24,0x8
 7101 007c 8760      		ori r24,lo8(7)
 7102 007e 88B9      		out 0x8,r24
 7103 0080 8BB1      		in r24,0xb
 7104 0082 8867      		ori r24,lo8(120)
 7105 0084 8BB9      		out 0xb,r24
 7106 0086 6091 6600 		lds r22,102
 7107 008a 8DEF      		ldi r24,lo8(-3)
 7108 008c 91E0      		ldi r25,lo8(1)
 7109 008e 0E94 0000 		call eeprom_write_byte
 7110               	.LVL634:
 7111               	.L619:
  19:Proj_3E.c     **** 	User_prompt;
 7112               		.loc 8 19 0 discriminator 5
 7113 0092 499B      		sbis 0x9,1
 7114 0094 00C0      		rjmp .L619
  19:Proj_3E.c     **** 	User_prompt;
 7115               		.loc 8 19 0 discriminator 6
 7116 0096 6CED      		ldi r22,lo8(-36)
 7117 0098 85E0      		ldi r24,lo8(5)
 7118 009a 0E94 0000 		call Timer_T0_sub
 7119               	.LVL635:
 7120 009e 8EEF      		ldi r24,lo8(-2)
 7121 00a0 91E0      		ldi r25,lo8(1)
 7122 00a2 0E94 0000 		call eeprom_read_byte
 7123               	.LVL636:
 7124 00a6 182F      		mov r17,r24
 7125 00a8 80EF      		ldi r24,lo8(-16)
 7126 00aa 810F      		add r24,r17
 7127 00ac 803E      		cpi r24,lo8(-32)
 7128 00ae 00F4      		brsh .L620
  19:Proj_3E.c     **** 	User_prompt;
 7129               		.loc 8 19 0 discriminator 9
 7130 00b0 8FEF      		ldi r24,lo8(-1)
 7131 00b2 91E0      		ldi r25,lo8(1)
 7132 00b4 0E94 0000 		call eeprom_read_byte
 7133               	.LVL637:
 7134 00b8 1813      		cpse r17,r24
 7135 00ba 00C0      		rjmp .L620
  19:Proj_3E.c     **** 	User_prompt;
 7136               		.loc 8 19 0 discriminator 11
 7137 00bc 1093 6600 		sts 102,r17
 7138               	.L620:
  19:Proj_3E.c     **** 	User_prompt;
 7139               		.loc 8 19 0 discriminator 13
 7140 00c0 60E1      		ldi r22,lo8(16)
 7141 00c2 80E0      		ldi r24,0
 7142 00c4 0E94 0000 		call USART_init
 7143               	.LVL638:
 7144 00c8 81E0      		ldi r24,lo8(1)
 7145 00ca 90E0      		ldi r25,0
 7146 00cc 0E94 0000 		call Timer_T0_10mS_delay_x_m
 7147               	.LVL639:
 7148 00d0 8091 0000 		lds r24,watch_dog_reset
 7149 00d4 8111      		cpse r24,__zero_reg__
 7150 00d6 00C0      		rjmp .L645
  19:Proj_3E.c     **** 	User_prompt;
 7151               		.loc 8 19 0 discriminator 14
 7152 00d8 0E94 0000 		call I2C_Tx_LED_dimmer
 7153               	.LVL640:
 7154               	.L645:
  20:Proj_3E.c     **** 	if(User_response == 'r')mode = 1; else mode = 0;
 7155               		.loc 8 20 0 is_stmt 1 discriminator 1
 7156 00dc 80E0      		ldi r24,lo8(.LC8)
 7157 00de 90E0      		ldi r25,hi8(.LC8)
 7158 00e0 0E94 0000 		call String_to_PC
 7159               	.LVL641:
 7160 00e4 8AEF      		ldi r24,lo8(-6)
 7161 00e6 0E94 0000 		call isCharavailable
 7162               	.LVL642:
 7163 00ea 8823      		tst r24
 7164 00ec 01F0      		breq .L645
 7165               	.LBB105:
 7166               	.LBB106:
  40:../../../Resources_V12/Subroutines/Basic_PC_comms.c **** 
 7167               		.loc 2 40 0
 7168 00ee 1091 C600 		lds r17,198
 7169               	.LBE106:
 7170               	.LBE105:
  20:Proj_3E.c     **** 	if(User_response == 'r')mode = 1; else mode = 0;
 7171               		.loc 8 20 0
 7172 00f2 1235      		cpi r17,lo8(82)
 7173 00f4 01F0      		breq .L623
  20:Proj_3E.c     **** 	if(User_response == 'r')mode = 1; else mode = 0;
 7174               		.loc 8 20 0 is_stmt 0 discriminator 4
 7175 00f6 1237      		cpi r17,lo8(114)
 7176 00f8 01F4      		brne .L645
 7177               	.L623:
  20:Proj_3E.c     **** 	if(User_response == 'r')mode = 1; else mode = 0;
 7178               		.loc 8 20 0 discriminator 5
 7179 00fa 80E0      		ldi r24,lo8(.LC0)
 7180 00fc 90E0      		ldi r25,hi8(.LC0)
 7181 00fe 0E94 0000 		call String_to_PC
 7182               	.LVL643:
  21:Proj_3E.c     **** 
 7183               		.loc 8 21 0 is_stmt 1 discriminator 5
 7184 0102 01E0      		ldi r16,lo8(1)
 7185 0104 1237      		cpi r17,lo8(114)
 7186 0106 01F0      		breq .L624
 7187 0108 00E0      		ldi r16,0
 7188               	.L624:
 7189               	.LVL644:
  24:Proj_3E.c     **** 	Num_1 = Num_from_KBD_Local(digits);											//Acquires data and Echoes keypresses to screen
 7190               		.loc 8 24 0 discriminator 5
 7191 010a 80E0      		ldi r24,lo8(.LC9)
 7192 010c 90E0      		ldi r25,hi8(.LC9)
 7193 010e 0E94 0000 		call String_to_PC
 7194               	.LVL645:
  25:Proj_3E.c     **** 	Num_to_PC(10,Num_1); newline();											//Converts number back to a string and sends it to the p
 7195               		.loc 8 25 0 discriminator 5
 7196 0112 CE01      		movw r24,r28
 7197 0114 0196      		adiw r24,1
 7198 0116 0E94 0000 		call Num_from_KBD_Local
 7199               	.LVL646:
 7200 011a 6B01      		movw r12,r22
 7201 011c 7C01      		movw r14,r24
 7202               	.LVL647:
  26:Proj_3E.c     **** 
 7203               		.loc 8 26 0 discriminator 5
 7204 011e AB01      		movw r20,r22
 7205 0120 BC01      		movw r22,r24
 7206 0122 8AE0      		ldi r24,lo8(10)
 7207 0124 0E94 0000 		call Num_to_PC
 7208               	.LVL648:
 7209 0128 0E94 0000 		call newline
 7210               	.LVL649:
  28:Proj_3E.c     **** 	OVF=0;																		//Set to 1 when multiplication would generate overflow
 7211               		.loc 8 28 0 discriminator 5
 7212 012c 80E0      		ldi r24,lo8(.LC10)
 7213 012e 90E0      		ldi r25,hi8(.LC10)
 7214 0130 0E94 0000 		call String_to_PC
 7215               	.LVL650:
 7216 0134 0E94 0000 		call newline
 7217               	.LVL651:
 7218 0138 812C      		mov r8,__zero_reg__
 7219 013a 912C      		mov r9,__zero_reg__
 7220 013c 5401      		movw r10,r8
 7221 013e 8394      		inc r8
  29:Proj_3E.c     **** 	m = 1;																		//Used for arithmetic
 7222               		.loc 8 29 0 discriminator 5
 7223 0140 10E0      		ldi r17,0
 7224               	.LVL652:
 7225               	.L631:
  32:Proj_3E.c     **** 		else Num_1 = Divide_and_round(Num_1,m);										//depending on value to OVF
 7226               		.loc 8 32 0
 7227 0142 1111      		cpse r17,__zero_reg__
 7228 0144 00C0      		rjmp .L625
 7229               	.LVL653:
  32:Proj_3E.c     **** 		else Num_1 = Divide_and_round(Num_1,m);										//depending on value to OVF
 7230               		.loc 8 32 0 is_stmt 0 discriminator 1
 7231 0146 A701      		movw r20,r14
 7232 0148 9601      		movw r18,r12
 7233 014a C501      		movw r24,r10
 7234 014c B401      		movw r22,r8
 7235 014e 0E94 0000 		call __mulsi3
 7236 0152 00C0      		rjmp .L653
 7237               	.LVL654:
 7238               	.L625:
  33:Proj_3E.c     **** 		m++;
 7239               		.loc 8 33 0 is_stmt 1
 7240 0154 A401      		movw r20,r8
 7241 0156 C701      		movw r24,r14
 7242 0158 B601      		movw r22,r12
 7243 015a 0E94 0000 		call Divide_and_round
 7244               	.LVL655:
 7245               	.L653:
 7246 015e 6B01      		movw r12,r22
 7247 0160 7C01      		movw r14,r24
 7248               	.LVL656:
  35:Proj_3E.c     **** 		if((!OVF)&&((Num_1 > 0xFFFFFFFF/(m+1)) || ((Num_1 * (m+1)) < 0)))		//Check for a potential overfl
 7249               		.loc 8 35 0
 7250 0162 202F      		mov r18,r16
 7251 0164 AE01      		movw r20,r28
 7252 0166 4F5F      		subi r20,-1
 7253 0168 5F4F      		sbci r21,-1
 7254 016a 0E94 0000 		call display_in_scientific_notation
 7255               	.LVL657:
  36:Proj_3E.c     **** 		OVF = 1;																	//If A*B > 0xFFFF then A > 0xFFFF/B and overflow will occur
 7256               		.loc 8 36 0
 7257 016e 1111      		cpse r17,__zero_reg__
 7258 0170 00C0      		rjmp .L627
 7259 0172 C401      		movw r24,r8
 7260 0174 0296      		adiw r24,2
  36:Proj_3E.c     **** 		OVF = 1;																	//If A*B > 0xFFFF then A > 0xFFFF/B and overflow will occur
 7261               		.loc 8 36 0 is_stmt 0 discriminator 1
 7262 0176 2C01      		movw r4,r24
 7263 0178 990F      		lsl r25
 7264 017a 6608      		sbc r6,r6
 7265 017c 7708      		sbc r7,r7
 7266 017e 6FEF      		ldi r22,lo8(-1)
 7267 0180 7FEF      		ldi r23,lo8(-1)
 7268 0182 CB01      		movw r24,r22
 7269 0184 A301      		movw r20,r6
 7270 0186 9201      		movw r18,r4
 7271 0188 0E94 0000 		call __udivmodsi4
 7272 018c 2C15      		cp r18,r12
 7273 018e 3D05      		cpc r19,r13
 7274 0190 4E05      		cpc r20,r14
 7275 0192 5F05      		cpc r21,r15
 7276 0194 00F4      		brsh .+2
 7277 0196 00C0      		rjmp .L627
  36:Proj_3E.c     **** 		OVF = 1;																	//If A*B > 0xFFFF then A > 0xFFFF/B and overflow will occur
 7278               		.loc 8 36 0 discriminator 2
 7279 0198 A301      		movw r20,r6
 7280 019a 9201      		movw r18,r4
 7281 019c C701      		movw r24,r14
 7282 019e B601      		movw r22,r12
 7283 01a0 0E94 0000 		call __mulsi3
 7284 01a4 97FD      		sbrc r25,7
 7285 01a6 00C0      		rjmp .L627
 7286               	.LVL658:
  41:Proj_3E.c     **** 		Num_to_PC(10,m);String_to_PC(" = ");
 7287               		.loc 8 41 0 is_stmt 1
 7288 01a8 80E0      		ldi r24,lo8(.LC13)
 7289 01aa 90E0      		ldi r25,hi8(.LC13)
 7290 01ac 0E94 0000 		call String_to_PC
 7291               	.LVL659:
 7292               	.L633:
 7293 01b0 8FEF      		ldi r24,-1
 7294 01b2 881A      		sub r8,r24
 7295 01b4 980A      		sbc r9,r24
 7296 01b6 A80A      		sbc r10,r24
 7297 01b8 B80A      		sbc r11,r24
 7298               	.LVL660:
  42:Proj_3E.c     **** 
 7299               		.loc 8 42 0
 7300 01ba B501      		movw r22,r10
 7301 01bc A401      		movw r20,r8
 7302 01be 8AE0      		ldi r24,lo8(10)
 7303 01c0 0E94 0000 		call Num_to_PC
 7304               	.LVL661:
 7305 01c4 80E0      		ldi r24,lo8(.LC11)
 7306 01c6 90E0      		ldi r25,hi8(.LC11)
 7307 01c8 0E94 0000 		call String_to_PC
 7308               	.LVL662:
  44:Proj_3E.c     **** 
 7309               		.loc 8 44 0
 7310 01cc C114      		cp r12,__zero_reg__
 7311 01ce D104      		cpc r13,__zero_reg__
 7312 01d0 E104      		cpc r14,__zero_reg__
 7313 01d2 F104      		cpc r15,__zero_reg__
 7314 01d4 01F4      		brne .L629
  44:Proj_3E.c     **** 
 7315               		.loc 8 44 0 is_stmt 0 discriminator 1
 7316 01d6 80E0      		ldi r24,lo8(.LC12)
 7317 01d8 90E0      		ldi r25,hi8(.LC12)
 7318 01da 0E94 0000 		call String_to_PC
 7319               	.LVL663:
 7320               	.L629:
  44:Proj_3E.c     **** 
 7321               		.loc 8 44 0 discriminator 3
 7322 01de 0E94 0000 		call newline
 7323               	.LVL664:
  46:Proj_3E.c     **** 		if(waitforkeypress() == 'x') break;										//press -x- to escape early or AOK to continue
 7324               		.loc 8 46 0 is_stmt 1 discriminator 3
 7325 01e2 89E1      		ldi r24,lo8(25)
 7326 01e4 90E0      		ldi r25,0
 7327 01e6 0E94 0000 		call Timer_T0_10mS_delay_x_m
 7328               	.LVL665:
  47:Proj_3E.c     **** 
 7329               		.loc 8 47 0 discriminator 3
 7330 01ea 0E94 0000 		call waitforkeypress
 7331               	.LVL666:
 7332 01ee 8837      		cpi r24,lo8(120)
 7333 01f0 01F0      		breq .L630
  49:Proj_3E.c     **** 
 7334               		.loc 8 49 0
 7335 01f2 C114      		cp r12,__zero_reg__
 7336 01f4 D104      		cpc r13,__zero_reg__
 7337 01f6 E104      		cpc r14,__zero_reg__
 7338 01f8 F104      		cpc r15,__zero_reg__
 7339 01fa 01F0      		breq .+2
 7340 01fc 00C0      		rjmp .L631
 7341               	.L630:
 7342               	.LVL667:
 7343               	.LBB107:
 7344               	.LBB108:
 7345               		.file 9 "c:\\program files (x86)\\atmel\\studio\\7.0\\toolchain\\avr8\\avr8-gnu-toolchain\\avr\\in
   1:c:\program files (x86)\atmel\studio\7.0\toolchain\avr8\avr8-gnu-toolchain\avr\include\avr\wdt.h **** /* Copyright (c) 2002, 2004 Marek Michalkiewicz
   2:c:\program files (x86)\atmel\studio\7.0\toolchain\avr8\avr8-gnu-toolchain\avr\include\avr\wdt.h ****    Copyright (c) 2005, 2006, 2007 Eric B. Weddington
   3:c:\program files (x86)\atmel\studio\7.0\toolchain\avr8\avr8-gnu-toolchain\avr\include\avr\wdt.h ****    All rights reserved.
   4:c:\program files (x86)\atmel\studio\7.0\toolchain\avr8\avr8-gnu-toolchain\avr\include\avr\wdt.h **** 
   5:c:\program files (x86)\atmel\studio\7.0\toolchain\avr8\avr8-gnu-toolchain\avr\include\avr\wdt.h ****    Redistribution and use in source and binary forms, with or without
   6:c:\program files (x86)\atmel\studio\7.0\toolchain\avr8\avr8-gnu-toolchain\avr\include\avr\wdt.h ****    modification, are permitted provided that the following conditions are met:
   7:c:\program files (x86)\atmel\studio\7.0\toolchain\avr8\avr8-gnu-toolchain\avr\include\avr\wdt.h **** 
   8:c:\program files (x86)\atmel\studio\7.0\toolchain\avr8\avr8-gnu-toolchain\avr\include\avr\wdt.h ****    * Redistributions of source code must retain the above copyright
   9:c:\program files (x86)\atmel\studio\7.0\toolchain\avr8\avr8-gnu-toolchain\avr\include\avr\wdt.h ****      notice, this list of conditions and the following disclaimer.
  10:c:\program files (x86)\atmel\studio\7.0\toolchain\avr8\avr8-gnu-toolchain\avr\include\avr\wdt.h **** 
  11:c:\program files (x86)\atmel\studio\7.0\toolchain\avr8\avr8-gnu-toolchain\avr\include\avr\wdt.h ****    * Redistributions in binary form must reproduce the above copyright
  12:c:\program files (x86)\atmel\studio\7.0\toolchain\avr8\avr8-gnu-toolchain\avr\include\avr\wdt.h ****      notice, this list of conditions and the following disclaimer in
  13:c:\program files (x86)\atmel\studio\7.0\toolchain\avr8\avr8-gnu-toolchain\avr\include\avr\wdt.h ****      the documentation and/or other materials provided with the
  14:c:\program files (x86)\atmel\studio\7.0\toolchain\avr8\avr8-gnu-toolchain\avr\include\avr\wdt.h ****      distribution.
  15:c:\program files (x86)\atmel\studio\7.0\toolchain\avr8\avr8-gnu-toolchain\avr\include\avr\wdt.h **** 
  16:c:\program files (x86)\atmel\studio\7.0\toolchain\avr8\avr8-gnu-toolchain\avr\include\avr\wdt.h ****    * Neither the name of the copyright holders nor the names of
  17:c:\program files (x86)\atmel\studio\7.0\toolchain\avr8\avr8-gnu-toolchain\avr\include\avr\wdt.h ****      contributors may be used to endorse or promote products derived
  18:c:\program files (x86)\atmel\studio\7.0\toolchain\avr8\avr8-gnu-toolchain\avr\include\avr\wdt.h ****      from this software without specific prior written permission.
  19:c:\program files (x86)\atmel\studio\7.0\toolchain\avr8\avr8-gnu-toolchain\avr\include\avr\wdt.h **** 
  20:c:\program files (x86)\atmel\studio\7.0\toolchain\avr8\avr8-gnu-toolchain\avr\include\avr\wdt.h ****   THIS SOFTWARE IS PROVIDED BY THE COPYRIGHT HOLDERS AND CONTRIBUTORS "AS IS"
  21:c:\program files (x86)\atmel\studio\7.0\toolchain\avr8\avr8-gnu-toolchain\avr\include\avr\wdt.h ****   AND ANY EXPRESS OR IMPLIED WARRANTIES, INCLUDING, BUT NOT LIMITED TO, THE
  22:c:\program files (x86)\atmel\studio\7.0\toolchain\avr8\avr8-gnu-toolchain\avr\include\avr\wdt.h ****   IMPLIED WARRANTIES OF MERCHANTABILITY AND FITNESS FOR A PARTICULAR PURPOSE
  23:c:\program files (x86)\atmel\studio\7.0\toolchain\avr8\avr8-gnu-toolchain\avr\include\avr\wdt.h ****   ARE DISCLAIMED. IN NO EVENT SHALL THE COPYRIGHT OWNER OR CONTRIBUTORS BE
  24:c:\program files (x86)\atmel\studio\7.0\toolchain\avr8\avr8-gnu-toolchain\avr\include\avr\wdt.h ****   LIABLE FOR ANY DIRECT, INDIRECT, INCIDENTAL, SPECIAL, EXEMPLARY, OR
  25:c:\program files (x86)\atmel\studio\7.0\toolchain\avr8\avr8-gnu-toolchain\avr\include\avr\wdt.h ****   CONSEQUENTIAL DAMAGES (INCLUDING, BUT NOT LIMITED TO, PROCUREMENT OF
  26:c:\program files (x86)\atmel\studio\7.0\toolchain\avr8\avr8-gnu-toolchain\avr\include\avr\wdt.h ****   SUBSTITUTE GOODS OR SERVICES; LOSS OF USE, DATA, OR PROFITS; OR BUSINESS
  27:c:\program files (x86)\atmel\studio\7.0\toolchain\avr8\avr8-gnu-toolchain\avr\include\avr\wdt.h ****   INTERRUPTION) HOWEVER CAUSED AND ON ANY THEORY OF LIABILITY, WHETHER IN
  28:c:\program files (x86)\atmel\studio\7.0\toolchain\avr8\avr8-gnu-toolchain\avr\include\avr\wdt.h ****   CONTRACT, STRICT LIABILITY, OR TORT (INCLUDING NEGLIGENCE OR OTHERWISE)
  29:c:\program files (x86)\atmel\studio\7.0\toolchain\avr8\avr8-gnu-toolchain\avr\include\avr\wdt.h ****   ARISING IN ANY WAY OUT OF THE USE OF THIS SOFTWARE, EVEN IF ADVISED OF THE
  30:c:\program files (x86)\atmel\studio\7.0\toolchain\avr8\avr8-gnu-toolchain\avr\include\avr\wdt.h ****   POSSIBILITY OF SUCH DAMAGE. */
  31:c:\program files (x86)\atmel\studio\7.0\toolchain\avr8\avr8-gnu-toolchain\avr\include\avr\wdt.h **** 
  32:c:\program files (x86)\atmel\studio\7.0\toolchain\avr8\avr8-gnu-toolchain\avr\include\avr\wdt.h **** /* $Id$ */
  33:c:\program files (x86)\atmel\studio\7.0\toolchain\avr8\avr8-gnu-toolchain\avr\include\avr\wdt.h **** 
  34:c:\program files (x86)\atmel\studio\7.0\toolchain\avr8\avr8-gnu-toolchain\avr\include\avr\wdt.h **** /*
  35:c:\program files (x86)\atmel\studio\7.0\toolchain\avr8\avr8-gnu-toolchain\avr\include\avr\wdt.h ****    avr/wdt.h - macros for AVR watchdog timer
  36:c:\program files (x86)\atmel\studio\7.0\toolchain\avr8\avr8-gnu-toolchain\avr\include\avr\wdt.h ****  */
  37:c:\program files (x86)\atmel\studio\7.0\toolchain\avr8\avr8-gnu-toolchain\avr\include\avr\wdt.h **** 
  38:c:\program files (x86)\atmel\studio\7.0\toolchain\avr8\avr8-gnu-toolchain\avr\include\avr\wdt.h **** #ifndef _AVR_WDT_H_
  39:c:\program files (x86)\atmel\studio\7.0\toolchain\avr8\avr8-gnu-toolchain\avr\include\avr\wdt.h **** #define _AVR_WDT_H_
  40:c:\program files (x86)\atmel\studio\7.0\toolchain\avr8\avr8-gnu-toolchain\avr\include\avr\wdt.h **** 
  41:c:\program files (x86)\atmel\studio\7.0\toolchain\avr8\avr8-gnu-toolchain\avr\include\avr\wdt.h **** #include <avr/io.h>
  42:c:\program files (x86)\atmel\studio\7.0\toolchain\avr8\avr8-gnu-toolchain\avr\include\avr\wdt.h **** #include <stdint.h>
  43:c:\program files (x86)\atmel\studio\7.0\toolchain\avr8\avr8-gnu-toolchain\avr\include\avr\wdt.h **** 
  44:c:\program files (x86)\atmel\studio\7.0\toolchain\avr8\avr8-gnu-toolchain\avr\include\avr\wdt.h **** /** \file */
  45:c:\program files (x86)\atmel\studio\7.0\toolchain\avr8\avr8-gnu-toolchain\avr\include\avr\wdt.h **** /** \defgroup avr_watchdog <avr/wdt.h>: Watchdog timer handling
  46:c:\program files (x86)\atmel\studio\7.0\toolchain\avr8\avr8-gnu-toolchain\avr\include\avr\wdt.h ****     \code #include <avr/wdt.h> \endcode
  47:c:\program files (x86)\atmel\studio\7.0\toolchain\avr8\avr8-gnu-toolchain\avr\include\avr\wdt.h **** 
  48:c:\program files (x86)\atmel\studio\7.0\toolchain\avr8\avr8-gnu-toolchain\avr\include\avr\wdt.h ****     This header file declares the interface to some inline macros
  49:c:\program files (x86)\atmel\studio\7.0\toolchain\avr8\avr8-gnu-toolchain\avr\include\avr\wdt.h ****     handling the watchdog timer present in many AVR devices.  In order
  50:c:\program files (x86)\atmel\studio\7.0\toolchain\avr8\avr8-gnu-toolchain\avr\include\avr\wdt.h ****     to prevent the watchdog timer configuration from being
  51:c:\program files (x86)\atmel\studio\7.0\toolchain\avr8\avr8-gnu-toolchain\avr\include\avr\wdt.h ****     accidentally altered by a crashing application, a special timed
  52:c:\program files (x86)\atmel\studio\7.0\toolchain\avr8\avr8-gnu-toolchain\avr\include\avr\wdt.h ****     sequence is required in order to change it.  The macros within
  53:c:\program files (x86)\atmel\studio\7.0\toolchain\avr8\avr8-gnu-toolchain\avr\include\avr\wdt.h ****     this header file handle the required sequence automatically
  54:c:\program files (x86)\atmel\studio\7.0\toolchain\avr8\avr8-gnu-toolchain\avr\include\avr\wdt.h ****     before changing any value.  Interrupts will be disabled during
  55:c:\program files (x86)\atmel\studio\7.0\toolchain\avr8\avr8-gnu-toolchain\avr\include\avr\wdt.h ****     the manipulation.
  56:c:\program files (x86)\atmel\studio\7.0\toolchain\avr8\avr8-gnu-toolchain\avr\include\avr\wdt.h **** 
  57:c:\program files (x86)\atmel\studio\7.0\toolchain\avr8\avr8-gnu-toolchain\avr\include\avr\wdt.h ****     \note Depending on the fuse configuration of the particular
  58:c:\program files (x86)\atmel\studio\7.0\toolchain\avr8\avr8-gnu-toolchain\avr\include\avr\wdt.h ****     device, further restrictions might apply, in particular it might
  59:c:\program files (x86)\atmel\studio\7.0\toolchain\avr8\avr8-gnu-toolchain\avr\include\avr\wdt.h ****     be disallowed to turn off the watchdog timer.
  60:c:\program files (x86)\atmel\studio\7.0\toolchain\avr8\avr8-gnu-toolchain\avr\include\avr\wdt.h **** 
  61:c:\program files (x86)\atmel\studio\7.0\toolchain\avr8\avr8-gnu-toolchain\avr\include\avr\wdt.h ****     Note that for newer devices (ATmega88 and newer, effectively any
  62:c:\program files (x86)\atmel\studio\7.0\toolchain\avr8\avr8-gnu-toolchain\avr\include\avr\wdt.h ****     AVR that has the option to also generate interrupts), the watchdog
  63:c:\program files (x86)\atmel\studio\7.0\toolchain\avr8\avr8-gnu-toolchain\avr\include\avr\wdt.h ****     timer remains active even after a system reset (except a power-on
  64:c:\program files (x86)\atmel\studio\7.0\toolchain\avr8\avr8-gnu-toolchain\avr\include\avr\wdt.h ****     condition), using the fastest prescaler value (approximately 15
  65:c:\program files (x86)\atmel\studio\7.0\toolchain\avr8\avr8-gnu-toolchain\avr\include\avr\wdt.h ****     ms).  It is therefore required to turn off the watchdog early
  66:c:\program files (x86)\atmel\studio\7.0\toolchain\avr8\avr8-gnu-toolchain\avr\include\avr\wdt.h ****     during program startup, the datasheet recommends a sequence like
  67:c:\program files (x86)\atmel\studio\7.0\toolchain\avr8\avr8-gnu-toolchain\avr\include\avr\wdt.h ****     the following:
  68:c:\program files (x86)\atmel\studio\7.0\toolchain\avr8\avr8-gnu-toolchain\avr\include\avr\wdt.h **** 
  69:c:\program files (x86)\atmel\studio\7.0\toolchain\avr8\avr8-gnu-toolchain\avr\include\avr\wdt.h ****     \code
  70:c:\program files (x86)\atmel\studio\7.0\toolchain\avr8\avr8-gnu-toolchain\avr\include\avr\wdt.h ****     #include <stdint.h>
  71:c:\program files (x86)\atmel\studio\7.0\toolchain\avr8\avr8-gnu-toolchain\avr\include\avr\wdt.h ****     #include <avr/wdt.h>
  72:c:\program files (x86)\atmel\studio\7.0\toolchain\avr8\avr8-gnu-toolchain\avr\include\avr\wdt.h **** 
  73:c:\program files (x86)\atmel\studio\7.0\toolchain\avr8\avr8-gnu-toolchain\avr\include\avr\wdt.h ****     uint8_t mcusr_mirror __attribute__ ((section (".noinit")));
  74:c:\program files (x86)\atmel\studio\7.0\toolchain\avr8\avr8-gnu-toolchain\avr\include\avr\wdt.h **** 
  75:c:\program files (x86)\atmel\studio\7.0\toolchain\avr8\avr8-gnu-toolchain\avr\include\avr\wdt.h ****     void get_mcusr(void) \
  76:c:\program files (x86)\atmel\studio\7.0\toolchain\avr8\avr8-gnu-toolchain\avr\include\avr\wdt.h ****       __attribute__((naked)) \
  77:c:\program files (x86)\atmel\studio\7.0\toolchain\avr8\avr8-gnu-toolchain\avr\include\avr\wdt.h ****       __attribute__((section(".init3")));
  78:c:\program files (x86)\atmel\studio\7.0\toolchain\avr8\avr8-gnu-toolchain\avr\include\avr\wdt.h ****     void get_mcusr(void)
  79:c:\program files (x86)\atmel\studio\7.0\toolchain\avr8\avr8-gnu-toolchain\avr\include\avr\wdt.h ****     {
  80:c:\program files (x86)\atmel\studio\7.0\toolchain\avr8\avr8-gnu-toolchain\avr\include\avr\wdt.h ****       mcusr_mirror = MCUSR;
  81:c:\program files (x86)\atmel\studio\7.0\toolchain\avr8\avr8-gnu-toolchain\avr\include\avr\wdt.h ****       MCUSR = 0;
  82:c:\program files (x86)\atmel\studio\7.0\toolchain\avr8\avr8-gnu-toolchain\avr\include\avr\wdt.h ****       wdt_disable();
  83:c:\program files (x86)\atmel\studio\7.0\toolchain\avr8\avr8-gnu-toolchain\avr\include\avr\wdt.h ****     }
  84:c:\program files (x86)\atmel\studio\7.0\toolchain\avr8\avr8-gnu-toolchain\avr\include\avr\wdt.h ****     \endcode
  85:c:\program files (x86)\atmel\studio\7.0\toolchain\avr8\avr8-gnu-toolchain\avr\include\avr\wdt.h **** 
  86:c:\program files (x86)\atmel\studio\7.0\toolchain\avr8\avr8-gnu-toolchain\avr\include\avr\wdt.h ****     Saving the value of MCUSR in \c mcusr_mirror is only needed if the
  87:c:\program files (x86)\atmel\studio\7.0\toolchain\avr8\avr8-gnu-toolchain\avr\include\avr\wdt.h ****     application later wants to examine the reset source, but in particular, 
  88:c:\program files (x86)\atmel\studio\7.0\toolchain\avr8\avr8-gnu-toolchain\avr\include\avr\wdt.h ****     clearing the watchdog reset flag before disabling the
  89:c:\program files (x86)\atmel\studio\7.0\toolchain\avr8\avr8-gnu-toolchain\avr\include\avr\wdt.h ****     watchdog is required, according to the datasheet.
  90:c:\program files (x86)\atmel\studio\7.0\toolchain\avr8\avr8-gnu-toolchain\avr\include\avr\wdt.h **** */
  91:c:\program files (x86)\atmel\studio\7.0\toolchain\avr8\avr8-gnu-toolchain\avr\include\avr\wdt.h **** 
  92:c:\program files (x86)\atmel\studio\7.0\toolchain\avr8\avr8-gnu-toolchain\avr\include\avr\wdt.h **** /**
  93:c:\program files (x86)\atmel\studio\7.0\toolchain\avr8\avr8-gnu-toolchain\avr\include\avr\wdt.h ****    \ingroup avr_watchdog
  94:c:\program files (x86)\atmel\studio\7.0\toolchain\avr8\avr8-gnu-toolchain\avr\include\avr\wdt.h ****    Reset the watchdog timer.  When the watchdog timer is enabled,
  95:c:\program files (x86)\atmel\studio\7.0\toolchain\avr8\avr8-gnu-toolchain\avr\include\avr\wdt.h ****    a call to this instruction is required before the timer expires,
  96:c:\program files (x86)\atmel\studio\7.0\toolchain\avr8\avr8-gnu-toolchain\avr\include\avr\wdt.h ****    otherwise a watchdog-initiated device reset will occur. 
  97:c:\program files (x86)\atmel\studio\7.0\toolchain\avr8\avr8-gnu-toolchain\avr\include\avr\wdt.h **** */
  98:c:\program files (x86)\atmel\studio\7.0\toolchain\avr8\avr8-gnu-toolchain\avr\include\avr\wdt.h **** 
  99:c:\program files (x86)\atmel\studio\7.0\toolchain\avr8\avr8-gnu-toolchain\avr\include\avr\wdt.h **** #define wdt_reset() __asm__ __volatile__ ("wdr")
 100:c:\program files (x86)\atmel\studio\7.0\toolchain\avr8\avr8-gnu-toolchain\avr\include\avr\wdt.h **** 
 101:c:\program files (x86)\atmel\studio\7.0\toolchain\avr8\avr8-gnu-toolchain\avr\include\avr\wdt.h **** #ifndef __DOXYGEN__
 102:c:\program files (x86)\atmel\studio\7.0\toolchain\avr8\avr8-gnu-toolchain\avr\include\avr\wdt.h **** 
 103:c:\program files (x86)\atmel\studio\7.0\toolchain\avr8\avr8-gnu-toolchain\avr\include\avr\wdt.h **** #if defined(WDP3)
 104:c:\program files (x86)\atmel\studio\7.0\toolchain\avr8\avr8-gnu-toolchain\avr\include\avr\wdt.h **** # define _WD_PS3_MASK       _BV(WDP3)
 105:c:\program files (x86)\atmel\studio\7.0\toolchain\avr8\avr8-gnu-toolchain\avr\include\avr\wdt.h **** #else
 106:c:\program files (x86)\atmel\studio\7.0\toolchain\avr8\avr8-gnu-toolchain\avr\include\avr\wdt.h **** # define _WD_PS3_MASK       0x00
 107:c:\program files (x86)\atmel\studio\7.0\toolchain\avr8\avr8-gnu-toolchain\avr\include\avr\wdt.h **** #endif
 108:c:\program files (x86)\atmel\studio\7.0\toolchain\avr8\avr8-gnu-toolchain\avr\include\avr\wdt.h **** 
 109:c:\program files (x86)\atmel\studio\7.0\toolchain\avr8\avr8-gnu-toolchain\avr\include\avr\wdt.h **** #if defined(WDTCSR)
 110:c:\program files (x86)\atmel\studio\7.0\toolchain\avr8\avr8-gnu-toolchain\avr\include\avr\wdt.h **** #  define _WD_CONTROL_REG     WDTCSR
 111:c:\program files (x86)\atmel\studio\7.0\toolchain\avr8\avr8-gnu-toolchain\avr\include\avr\wdt.h **** #elif defined(WDTCR)
 112:c:\program files (x86)\atmel\studio\7.0\toolchain\avr8\avr8-gnu-toolchain\avr\include\avr\wdt.h **** #  define _WD_CONTROL_REG     WDTCR
 113:c:\program files (x86)\atmel\studio\7.0\toolchain\avr8\avr8-gnu-toolchain\avr\include\avr\wdt.h **** #else
 114:c:\program files (x86)\atmel\studio\7.0\toolchain\avr8\avr8-gnu-toolchain\avr\include\avr\wdt.h **** #  define _WD_CONTROL_REG     WDT
 115:c:\program files (x86)\atmel\studio\7.0\toolchain\avr8\avr8-gnu-toolchain\avr\include\avr\wdt.h **** #endif
 116:c:\program files (x86)\atmel\studio\7.0\toolchain\avr8\avr8-gnu-toolchain\avr\include\avr\wdt.h **** 
 117:c:\program files (x86)\atmel\studio\7.0\toolchain\avr8\avr8-gnu-toolchain\avr\include\avr\wdt.h **** #if defined(WDTOE)
 118:c:\program files (x86)\atmel\studio\7.0\toolchain\avr8\avr8-gnu-toolchain\avr\include\avr\wdt.h **** #define _WD_CHANGE_BIT      WDTOE
 119:c:\program files (x86)\atmel\studio\7.0\toolchain\avr8\avr8-gnu-toolchain\avr\include\avr\wdt.h **** #else
 120:c:\program files (x86)\atmel\studio\7.0\toolchain\avr8\avr8-gnu-toolchain\avr\include\avr\wdt.h **** #define _WD_CHANGE_BIT      WDCE
 121:c:\program files (x86)\atmel\studio\7.0\toolchain\avr8\avr8-gnu-toolchain\avr\include\avr\wdt.h **** #endif
 122:c:\program files (x86)\atmel\studio\7.0\toolchain\avr8\avr8-gnu-toolchain\avr\include\avr\wdt.h **** 
 123:c:\program files (x86)\atmel\studio\7.0\toolchain\avr8\avr8-gnu-toolchain\avr\include\avr\wdt.h **** #endif	/* !__DOXYGEN__ */
 124:c:\program files (x86)\atmel\studio\7.0\toolchain\avr8\avr8-gnu-toolchain\avr\include\avr\wdt.h **** 
 125:c:\program files (x86)\atmel\studio\7.0\toolchain\avr8\avr8-gnu-toolchain\avr\include\avr\wdt.h **** 
 126:c:\program files (x86)\atmel\studio\7.0\toolchain\avr8\avr8-gnu-toolchain\avr\include\avr\wdt.h **** /**
 127:c:\program files (x86)\atmel\studio\7.0\toolchain\avr8\avr8-gnu-toolchain\avr\include\avr\wdt.h ****    \ingroup avr_watchdog
 128:c:\program files (x86)\atmel\studio\7.0\toolchain\avr8\avr8-gnu-toolchain\avr\include\avr\wdt.h ****    Enable the watchdog timer, configuring it for expiry after
 129:c:\program files (x86)\atmel\studio\7.0\toolchain\avr8\avr8-gnu-toolchain\avr\include\avr\wdt.h ****    \c timeout (which is a combination of the \c WDP0 through
 130:c:\program files (x86)\atmel\studio\7.0\toolchain\avr8\avr8-gnu-toolchain\avr\include\avr\wdt.h ****    \c WDP2 bits to write into the \c WDTCR register; For those devices 
 131:c:\program files (x86)\atmel\studio\7.0\toolchain\avr8\avr8-gnu-toolchain\avr\include\avr\wdt.h ****    that have a \c WDTCSR register, it uses the combination of the \c WDP0 
 132:c:\program files (x86)\atmel\studio\7.0\toolchain\avr8\avr8-gnu-toolchain\avr\include\avr\wdt.h ****    through \c WDP3 bits).
 133:c:\program files (x86)\atmel\studio\7.0\toolchain\avr8\avr8-gnu-toolchain\avr\include\avr\wdt.h **** 
 134:c:\program files (x86)\atmel\studio\7.0\toolchain\avr8\avr8-gnu-toolchain\avr\include\avr\wdt.h ****    See also the symbolic constants \c WDTO_15MS et al.
 135:c:\program files (x86)\atmel\studio\7.0\toolchain\avr8\avr8-gnu-toolchain\avr\include\avr\wdt.h **** */
 136:c:\program files (x86)\atmel\studio\7.0\toolchain\avr8\avr8-gnu-toolchain\avr\include\avr\wdt.h **** 
 137:c:\program files (x86)\atmel\studio\7.0\toolchain\avr8\avr8-gnu-toolchain\avr\include\avr\wdt.h **** 
 138:c:\program files (x86)\atmel\studio\7.0\toolchain\avr8\avr8-gnu-toolchain\avr\include\avr\wdt.h **** #if defined(__AVR_XMEGA__)
 139:c:\program files (x86)\atmel\studio\7.0\toolchain\avr8\avr8-gnu-toolchain\avr\include\avr\wdt.h **** 
 140:c:\program files (x86)\atmel\studio\7.0\toolchain\avr8\avr8-gnu-toolchain\avr\include\avr\wdt.h **** #if defined (WDT_CTRLA) && !defined(RAMPD)
 141:c:\program files (x86)\atmel\studio\7.0\toolchain\avr8\avr8-gnu-toolchain\avr\include\avr\wdt.h **** 
 142:c:\program files (x86)\atmel\studio\7.0\toolchain\avr8\avr8-gnu-toolchain\avr\include\avr\wdt.h **** #define wdt_enable(timeout) \
 143:c:\program files (x86)\atmel\studio\7.0\toolchain\avr8\avr8-gnu-toolchain\avr\include\avr\wdt.h **** do { \
 144:c:\program files (x86)\atmel\studio\7.0\toolchain\avr8\avr8-gnu-toolchain\avr\include\avr\wdt.h **** uint8_t temp; \
 145:c:\program files (x86)\atmel\studio\7.0\toolchain\avr8\avr8-gnu-toolchain\avr\include\avr\wdt.h **** __asm__ __volatile__ ( \
 146:c:\program files (x86)\atmel\studio\7.0\toolchain\avr8\avr8-gnu-toolchain\avr\include\avr\wdt.h **** 	"wdr"									"\n\t" \
 147:c:\program files (x86)\atmel\studio\7.0\toolchain\avr8\avr8-gnu-toolchain\avr\include\avr\wdt.h **** 	"out %[ccp_reg], %[ioreg_cen_mask]"		"\n\t" \
 148:c:\program files (x86)\atmel\studio\7.0\toolchain\avr8\avr8-gnu-toolchain\avr\include\avr\wdt.h **** 	"lds %[tmp], %[wdt_reg]"				"\n\t" \
 149:c:\program files (x86)\atmel\studio\7.0\toolchain\avr8\avr8-gnu-toolchain\avr\include\avr\wdt.h **** 	"sbr %[tmp], %[wdt_enable_timeout]"		"\n\t" \
 150:c:\program files (x86)\atmel\studio\7.0\toolchain\avr8\avr8-gnu-toolchain\avr\include\avr\wdt.h **** 	"sts %[wdt_reg], %[tmp]"				"\n\t" \
 151:c:\program files (x86)\atmel\studio\7.0\toolchain\avr8\avr8-gnu-toolchain\avr\include\avr\wdt.h **** 	"1:lds %[tmp], %[wdt_status_reg]"		"\n\t" \
 152:c:\program files (x86)\atmel\studio\7.0\toolchain\avr8\avr8-gnu-toolchain\avr\include\avr\wdt.h **** 	"sbrc %[tmp], %[wdt_syncbusy_bit]"		"\n\t" \
 153:c:\program files (x86)\atmel\studio\7.0\toolchain\avr8\avr8-gnu-toolchain\avr\include\avr\wdt.h **** 	"rjmp 1b"								"\n\t" \
 154:c:\program files (x86)\atmel\studio\7.0\toolchain\avr8\avr8-gnu-toolchain\avr\include\avr\wdt.h **** 	: [tmp]					"=r" (temp) \
 155:c:\program files (x86)\atmel\studio\7.0\toolchain\avr8\avr8-gnu-toolchain\avr\include\avr\wdt.h **** 	: [ccp_reg]				"I"  (_SFR_IO_ADDR(CCP)), \
 156:c:\program files (x86)\atmel\studio\7.0\toolchain\avr8\avr8-gnu-toolchain\avr\include\avr\wdt.h **** 	  [ioreg_cen_mask]		"r"  ((uint8_t)CCP_IOREG_gc), \
 157:c:\program files (x86)\atmel\studio\7.0\toolchain\avr8\avr8-gnu-toolchain\avr\include\avr\wdt.h **** 	  [wdt_reg]				"n"  (_SFR_MEM_ADDR(WDT_CTRLA)), \
 158:c:\program files (x86)\atmel\studio\7.0\toolchain\avr8\avr8-gnu-toolchain\avr\include\avr\wdt.h **** 	  [wdt_enable_timeout]	"M"  (timeout), \
 159:c:\program files (x86)\atmel\studio\7.0\toolchain\avr8\avr8-gnu-toolchain\avr\include\avr\wdt.h **** 	  [wdt_status_reg]		"n"  (_SFR_MEM_ADDR(WDT_STATUS)), \
 160:c:\program files (x86)\atmel\studio\7.0\toolchain\avr8\avr8-gnu-toolchain\avr\include\avr\wdt.h **** 	  [wdt_syncbusy_bit]	"I"  (WDT_SYNCBUSY_bm) \
 161:c:\program files (x86)\atmel\studio\7.0\toolchain\avr8\avr8-gnu-toolchain\avr\include\avr\wdt.h **** ); \
 162:c:\program files (x86)\atmel\studio\7.0\toolchain\avr8\avr8-gnu-toolchain\avr\include\avr\wdt.h **** } while(0)
 163:c:\program files (x86)\atmel\studio\7.0\toolchain\avr8\avr8-gnu-toolchain\avr\include\avr\wdt.h **** 
 164:c:\program files (x86)\atmel\studio\7.0\toolchain\avr8\avr8-gnu-toolchain\avr\include\avr\wdt.h **** #define wdt_disable() \
 165:c:\program files (x86)\atmel\studio\7.0\toolchain\avr8\avr8-gnu-toolchain\avr\include\avr\wdt.h **** do { \
 166:c:\program files (x86)\atmel\studio\7.0\toolchain\avr8\avr8-gnu-toolchain\avr\include\avr\wdt.h **** uint8_t temp; \
 167:c:\program files (x86)\atmel\studio\7.0\toolchain\avr8\avr8-gnu-toolchain\avr\include\avr\wdt.h **** __asm__ __volatile__ (  \
 168:c:\program files (x86)\atmel\studio\7.0\toolchain\avr8\avr8-gnu-toolchain\avr\include\avr\wdt.h **** 	"wdr"								"\n\t" \
 169:c:\program files (x86)\atmel\studio\7.0\toolchain\avr8\avr8-gnu-toolchain\avr\include\avr\wdt.h **** 	"out %[ccp_reg], %[ioreg_cen_mask]" "\n\t" \
 170:c:\program files (x86)\atmel\studio\7.0\toolchain\avr8\avr8-gnu-toolchain\avr\include\avr\wdt.h **** 	"lds %[tmp], %[wdt_reg]"			"\n\t" \
 171:c:\program files (x86)\atmel\studio\7.0\toolchain\avr8\avr8-gnu-toolchain\avr\include\avr\wdt.h **** 	"cbr %[tmp], %[timeout_mask]"       "\n\t" \
 172:c:\program files (x86)\atmel\studio\7.0\toolchain\avr8\avr8-gnu-toolchain\avr\include\avr\wdt.h **** 	"sts %[wdt_reg], %[tmp]"			"\n\t" \
 173:c:\program files (x86)\atmel\studio\7.0\toolchain\avr8\avr8-gnu-toolchain\avr\include\avr\wdt.h ****     : [tmp]            "=r" (temp) \
 174:c:\program files (x86)\atmel\studio\7.0\toolchain\avr8\avr8-gnu-toolchain\avr\include\avr\wdt.h ****     : [ccp_reg]        "I" (_SFR_IO_ADDR(CCP)),       \
 175:c:\program files (x86)\atmel\studio\7.0\toolchain\avr8\avr8-gnu-toolchain\avr\include\avr\wdt.h ****       [ioreg_cen_mask] "r" ((uint8_t)CCP_IOREG_gc),   \
 176:c:\program files (x86)\atmel\studio\7.0\toolchain\avr8\avr8-gnu-toolchain\avr\include\avr\wdt.h ****       [wdt_reg]        "n" (_SFR_MEM_ADDR(WDT_CTRLA)),\
 177:c:\program files (x86)\atmel\studio\7.0\toolchain\avr8\avr8-gnu-toolchain\avr\include\avr\wdt.h ****       [timeout_mask]   "I" (WDT_PERIOD_gm) \
 178:c:\program files (x86)\atmel\studio\7.0\toolchain\avr8\avr8-gnu-toolchain\avr\include\avr\wdt.h **** ); \
 179:c:\program files (x86)\atmel\studio\7.0\toolchain\avr8\avr8-gnu-toolchain\avr\include\avr\wdt.h **** } while(0)
 180:c:\program files (x86)\atmel\studio\7.0\toolchain\avr8\avr8-gnu-toolchain\avr\include\avr\wdt.h **** 
 181:c:\program files (x86)\atmel\studio\7.0\toolchain\avr8\avr8-gnu-toolchain\avr\include\avr\wdt.h **** #else // defined (WDT_CTRLA) && !defined(RAMPD)
 182:c:\program files (x86)\atmel\studio\7.0\toolchain\avr8\avr8-gnu-toolchain\avr\include\avr\wdt.h **** 
 183:c:\program files (x86)\atmel\studio\7.0\toolchain\avr8\avr8-gnu-toolchain\avr\include\avr\wdt.h **** /*
 184:c:\program files (x86)\atmel\studio\7.0\toolchain\avr8\avr8-gnu-toolchain\avr\include\avr\wdt.h ****    wdt_enable(timeout) for xmega devices
 185:c:\program files (x86)\atmel\studio\7.0\toolchain\avr8\avr8-gnu-toolchain\avr\include\avr\wdt.h **** ** write signature (CCP_IOREG_gc) that enables change of protected I/O
 186:c:\program files (x86)\atmel\studio\7.0\toolchain\avr8\avr8-gnu-toolchain\avr\include\avr\wdt.h ****    registers to the CCP register
 187:c:\program files (x86)\atmel\studio\7.0\toolchain\avr8\avr8-gnu-toolchain\avr\include\avr\wdt.h **** ** At the same time,
 188:c:\program files (x86)\atmel\studio\7.0\toolchain\avr8\avr8-gnu-toolchain\avr\include\avr\wdt.h ****    1) set WDT change enable (WDT_CEN_bm)
 189:c:\program files (x86)\atmel\studio\7.0\toolchain\avr8\avr8-gnu-toolchain\avr\include\avr\wdt.h ****    2) enable WDT (WDT_ENABLE_bm)
 190:c:\program files (x86)\atmel\studio\7.0\toolchain\avr8\avr8-gnu-toolchain\avr\include\avr\wdt.h ****    3) set timeout (timeout)
 191:c:\program files (x86)\atmel\studio\7.0\toolchain\avr8\avr8-gnu-toolchain\avr\include\avr\wdt.h **** ** Synchronization starts when ENABLE bit of WDT is set. So, wait till it
 192:c:\program files (x86)\atmel\studio\7.0\toolchain\avr8\avr8-gnu-toolchain\avr\include\avr\wdt.h ****    finishes (SYNCBUSY of STATUS register is automatically cleared after the
 193:c:\program files (x86)\atmel\studio\7.0\toolchain\avr8\avr8-gnu-toolchain\avr\include\avr\wdt.h ****    sync is finished).
 194:c:\program files (x86)\atmel\studio\7.0\toolchain\avr8\avr8-gnu-toolchain\avr\include\avr\wdt.h **** */
 195:c:\program files (x86)\atmel\studio\7.0\toolchain\avr8\avr8-gnu-toolchain\avr\include\avr\wdt.h **** #define wdt_enable(timeout) \
 196:c:\program files (x86)\atmel\studio\7.0\toolchain\avr8\avr8-gnu-toolchain\avr\include\avr\wdt.h **** do { \
 197:c:\program files (x86)\atmel\studio\7.0\toolchain\avr8\avr8-gnu-toolchain\avr\include\avr\wdt.h **** uint8_t temp; \
 198:c:\program files (x86)\atmel\studio\7.0\toolchain\avr8\avr8-gnu-toolchain\avr\include\avr\wdt.h **** __asm__ __volatile__ (         \
 199:c:\program files (x86)\atmel\studio\7.0\toolchain\avr8\avr8-gnu-toolchain\avr\include\avr\wdt.h ****     "in __tmp_reg__, %[rampd]"              "\n\t" \
 200:c:\program files (x86)\atmel\studio\7.0\toolchain\avr8\avr8-gnu-toolchain\avr\include\avr\wdt.h ****     "out %[rampd], __zero_reg__"            "\n\t" \
 201:c:\program files (x86)\atmel\studio\7.0\toolchain\avr8\avr8-gnu-toolchain\avr\include\avr\wdt.h ****     "out %[ccp_reg], %[ioreg_cen_mask]"     "\n\t" \
 202:c:\program files (x86)\atmel\studio\7.0\toolchain\avr8\avr8-gnu-toolchain\avr\include\avr\wdt.h ****     "sts %[wdt_reg], %[wdt_enable_timeout]" "\n\t" \
 203:c:\program files (x86)\atmel\studio\7.0\toolchain\avr8\avr8-gnu-toolchain\avr\include\avr\wdt.h ****     "1:lds %[tmp], %[wdt_status_reg]"       "\n\t" \
 204:c:\program files (x86)\atmel\studio\7.0\toolchain\avr8\avr8-gnu-toolchain\avr\include\avr\wdt.h ****     "sbrc %[tmp], %[wdt_syncbusy_bit]"      "\n\t" \
 205:c:\program files (x86)\atmel\studio\7.0\toolchain\avr8\avr8-gnu-toolchain\avr\include\avr\wdt.h ****     "rjmp 1b"                               "\n\t" \
 206:c:\program files (x86)\atmel\studio\7.0\toolchain\avr8\avr8-gnu-toolchain\avr\include\avr\wdt.h ****     "out %[rampd], __tmp_reg__"             "\n\t" \
 207:c:\program files (x86)\atmel\studio\7.0\toolchain\avr8\avr8-gnu-toolchain\avr\include\avr\wdt.h ****     : [tmp]                "=r" (temp) \
 208:c:\program files (x86)\atmel\studio\7.0\toolchain\avr8\avr8-gnu-toolchain\avr\include\avr\wdt.h ****     : [rampd]              "I" (_SFR_IO_ADDR(RAMPD)),      \
 209:c:\program files (x86)\atmel\studio\7.0\toolchain\avr8\avr8-gnu-toolchain\avr\include\avr\wdt.h ****       [ccp_reg]            "I" (_SFR_IO_ADDR(CCP)),        \
 210:c:\program files (x86)\atmel\studio\7.0\toolchain\avr8\avr8-gnu-toolchain\avr\include\avr\wdt.h ****       [ioreg_cen_mask]     "r" ((uint8_t)CCP_IOREG_gc),     \
 211:c:\program files (x86)\atmel\studio\7.0\toolchain\avr8\avr8-gnu-toolchain\avr\include\avr\wdt.h ****       [wdt_reg]            "n" (_SFR_MEM_ADDR(WDT_CTRL)),   \
 212:c:\program files (x86)\atmel\studio\7.0\toolchain\avr8\avr8-gnu-toolchain\avr\include\avr\wdt.h ****       [wdt_enable_timeout] "r" ((uint8_t)(WDT_CEN_bm | WDT_ENABLE_bm | timeout)), \
 213:c:\program files (x86)\atmel\studio\7.0\toolchain\avr8\avr8-gnu-toolchain\avr\include\avr\wdt.h ****       [wdt_status_reg]     "n" (_SFR_MEM_ADDR(WDT_STATUS)), \
 214:c:\program files (x86)\atmel\studio\7.0\toolchain\avr8\avr8-gnu-toolchain\avr\include\avr\wdt.h ****       [wdt_syncbusy_bit]   "I" (WDT_SYNCBUSY_bm)            \
 215:c:\program files (x86)\atmel\studio\7.0\toolchain\avr8\avr8-gnu-toolchain\avr\include\avr\wdt.h ****     : "r0" \
 216:c:\program files (x86)\atmel\studio\7.0\toolchain\avr8\avr8-gnu-toolchain\avr\include\avr\wdt.h **** ); \
 217:c:\program files (x86)\atmel\studio\7.0\toolchain\avr8\avr8-gnu-toolchain\avr\include\avr\wdt.h **** } while(0)
 218:c:\program files (x86)\atmel\studio\7.0\toolchain\avr8\avr8-gnu-toolchain\avr\include\avr\wdt.h **** 
 219:c:\program files (x86)\atmel\studio\7.0\toolchain\avr8\avr8-gnu-toolchain\avr\include\avr\wdt.h **** #define wdt_disable() \
 220:c:\program files (x86)\atmel\studio\7.0\toolchain\avr8\avr8-gnu-toolchain\avr\include\avr\wdt.h **** __asm__ __volatile__ (  \
 221:c:\program files (x86)\atmel\studio\7.0\toolchain\avr8\avr8-gnu-toolchain\avr\include\avr\wdt.h ****     "in __tmp_reg__, %[rampd]"          "\n\t" \
 222:c:\program files (x86)\atmel\studio\7.0\toolchain\avr8\avr8-gnu-toolchain\avr\include\avr\wdt.h ****     "out %[rampd], __zero_reg__"        "\n\t" \
 223:c:\program files (x86)\atmel\studio\7.0\toolchain\avr8\avr8-gnu-toolchain\avr\include\avr\wdt.h ****     "out %[ccp_reg], %[ioreg_cen_mask]" "\n\t" \
 224:c:\program files (x86)\atmel\studio\7.0\toolchain\avr8\avr8-gnu-toolchain\avr\include\avr\wdt.h ****     "sts %[wdt_reg], %[disable_mask]"   "\n\t" \
 225:c:\program files (x86)\atmel\studio\7.0\toolchain\avr8\avr8-gnu-toolchain\avr\include\avr\wdt.h ****     "out %[rampd], __tmp_reg__"         "\n\t" \
 226:c:\program files (x86)\atmel\studio\7.0\toolchain\avr8\avr8-gnu-toolchain\avr\include\avr\wdt.h ****     : \
 227:c:\program files (x86)\atmel\studio\7.0\toolchain\avr8\avr8-gnu-toolchain\avr\include\avr\wdt.h ****     : [rampd]             "I" (_SFR_IO_ADDR(RAMPD)),    \
 228:c:\program files (x86)\atmel\studio\7.0\toolchain\avr8\avr8-gnu-toolchain\avr\include\avr\wdt.h ****       [ccp_reg]           "I" (_SFR_IO_ADDR(CCP)),      \
 229:c:\program files (x86)\atmel\studio\7.0\toolchain\avr8\avr8-gnu-toolchain\avr\include\avr\wdt.h ****       [ioreg_cen_mask]    "r" ((uint8_t)CCP_IOREG_gc),   \
 230:c:\program files (x86)\atmel\studio\7.0\toolchain\avr8\avr8-gnu-toolchain\avr\include\avr\wdt.h ****       [wdt_reg]           "n" (_SFR_MEM_ADDR(WDT_CTRL)), \
 231:c:\program files (x86)\atmel\studio\7.0\toolchain\avr8\avr8-gnu-toolchain\avr\include\avr\wdt.h ****       [disable_mask]      "r" ((uint8_t)((~WDT_ENABLE_bm) | WDT_CEN_bm)) \
 232:c:\program files (x86)\atmel\studio\7.0\toolchain\avr8\avr8-gnu-toolchain\avr\include\avr\wdt.h ****     : "r0" \
 233:c:\program files (x86)\atmel\studio\7.0\toolchain\avr8\avr8-gnu-toolchain\avr\include\avr\wdt.h **** );
 234:c:\program files (x86)\atmel\studio\7.0\toolchain\avr8\avr8-gnu-toolchain\avr\include\avr\wdt.h **** 
 235:c:\program files (x86)\atmel\studio\7.0\toolchain\avr8\avr8-gnu-toolchain\avr\include\avr\wdt.h **** #endif // defined (WDT_CTRLA) && !defined(RAMPD)
 236:c:\program files (x86)\atmel\studio\7.0\toolchain\avr8\avr8-gnu-toolchain\avr\include\avr\wdt.h **** 
 237:c:\program files (x86)\atmel\studio\7.0\toolchain\avr8\avr8-gnu-toolchain\avr\include\avr\wdt.h **** #elif defined(__AVR_TINY__)
 238:c:\program files (x86)\atmel\studio\7.0\toolchain\avr8\avr8-gnu-toolchain\avr\include\avr\wdt.h **** 
 239:c:\program files (x86)\atmel\studio\7.0\toolchain\avr8\avr8-gnu-toolchain\avr\include\avr\wdt.h **** #define wdt_enable(value) \
 240:c:\program files (x86)\atmel\studio\7.0\toolchain\avr8\avr8-gnu-toolchain\avr\include\avr\wdt.h **** __asm__ __volatile__ ( \
 241:c:\program files (x86)\atmel\studio\7.0\toolchain\avr8\avr8-gnu-toolchain\avr\include\avr\wdt.h ****     "in __tmp_reg__,__SREG__" "\n\t"  \
 242:c:\program files (x86)\atmel\studio\7.0\toolchain\avr8\avr8-gnu-toolchain\avr\include\avr\wdt.h ****     "cli" "\n\t"  \
 243:c:\program files (x86)\atmel\studio\7.0\toolchain\avr8\avr8-gnu-toolchain\avr\include\avr\wdt.h ****     "wdr" "\n\t"  \
 244:c:\program files (x86)\atmel\studio\7.0\toolchain\avr8\avr8-gnu-toolchain\avr\include\avr\wdt.h ****     "out %[CCPADDRESS],%[SIGNATURE]" "\n\t"  \
 245:c:\program files (x86)\atmel\studio\7.0\toolchain\avr8\avr8-gnu-toolchain\avr\include\avr\wdt.h ****     "out %[WDTREG],%[WDVALUE]" "\n\t"  \
 246:c:\program files (x86)\atmel\studio\7.0\toolchain\avr8\avr8-gnu-toolchain\avr\include\avr\wdt.h ****     "out __SREG__,__tmp_reg__" "\n\t"  \
 247:c:\program files (x86)\atmel\studio\7.0\toolchain\avr8\avr8-gnu-toolchain\avr\include\avr\wdt.h ****     : /* no outputs */  \
 248:c:\program files (x86)\atmel\studio\7.0\toolchain\avr8\avr8-gnu-toolchain\avr\include\avr\wdt.h ****     : [CCPADDRESS] "I" (_SFR_IO_ADDR(CCP)),  \
 249:c:\program files (x86)\atmel\studio\7.0\toolchain\avr8\avr8-gnu-toolchain\avr\include\avr\wdt.h ****       [SIGNATURE] "r" ((uint8_t)0xD8), \
 250:c:\program files (x86)\atmel\studio\7.0\toolchain\avr8\avr8-gnu-toolchain\avr\include\avr\wdt.h ****       [WDTREG] "I" (_SFR_IO_ADDR(_WD_CONTROL_REG)), \
 251:c:\program files (x86)\atmel\studio\7.0\toolchain\avr8\avr8-gnu-toolchain\avr\include\avr\wdt.h ****       [WDVALUE] "r" ((uint8_t)((value & 0x08 ? _WD_PS3_MASK : 0x00) \
 252:c:\program files (x86)\atmel\studio\7.0\toolchain\avr8\avr8-gnu-toolchain\avr\include\avr\wdt.h ****       | _BV(WDE) | (value & 0x07) )) \
 253:c:\program files (x86)\atmel\studio\7.0\toolchain\avr8\avr8-gnu-toolchain\avr\include\avr\wdt.h ****     : "r16" \
 254:c:\program files (x86)\atmel\studio\7.0\toolchain\avr8\avr8-gnu-toolchain\avr\include\avr\wdt.h **** )
 255:c:\program files (x86)\atmel\studio\7.0\toolchain\avr8\avr8-gnu-toolchain\avr\include\avr\wdt.h **** 
 256:c:\program files (x86)\atmel\studio\7.0\toolchain\avr8\avr8-gnu-toolchain\avr\include\avr\wdt.h **** #define wdt_disable() \
 257:c:\program files (x86)\atmel\studio\7.0\toolchain\avr8\avr8-gnu-toolchain\avr\include\avr\wdt.h **** do { \
 258:c:\program files (x86)\atmel\studio\7.0\toolchain\avr8\avr8-gnu-toolchain\avr\include\avr\wdt.h **** uint8_t temp_wd; \
 259:c:\program files (x86)\atmel\studio\7.0\toolchain\avr8\avr8-gnu-toolchain\avr\include\avr\wdt.h **** __asm__ __volatile__ ( \
 260:c:\program files (x86)\atmel\studio\7.0\toolchain\avr8\avr8-gnu-toolchain\avr\include\avr\wdt.h ****     "in __tmp_reg__,__SREG__" "\n\t"  \
 261:c:\program files (x86)\atmel\studio\7.0\toolchain\avr8\avr8-gnu-toolchain\avr\include\avr\wdt.h ****     "cli" "\n\t"  \
 262:c:\program files (x86)\atmel\studio\7.0\toolchain\avr8\avr8-gnu-toolchain\avr\include\avr\wdt.h ****     "wdr" "\n\t"  \
 263:c:\program files (x86)\atmel\studio\7.0\toolchain\avr8\avr8-gnu-toolchain\avr\include\avr\wdt.h ****     "out %[CCPADDRESS],%[SIGNATURE]" "\n\t"  \
 264:c:\program files (x86)\atmel\studio\7.0\toolchain\avr8\avr8-gnu-toolchain\avr\include\avr\wdt.h ****     "in  %[TEMP_WD],%[WDTREG]" "\n\t" \
 265:c:\program files (x86)\atmel\studio\7.0\toolchain\avr8\avr8-gnu-toolchain\avr\include\avr\wdt.h ****     "cbr %[TEMP_WD],%[WDVALUE]" "\n\t" \
 266:c:\program files (x86)\atmel\studio\7.0\toolchain\avr8\avr8-gnu-toolchain\avr\include\avr\wdt.h ****     "out %[WDTREG],%[TEMP_WD]" "\n\t" \
 267:c:\program files (x86)\atmel\studio\7.0\toolchain\avr8\avr8-gnu-toolchain\avr\include\avr\wdt.h ****     "out __SREG__,__tmp_reg__" "\n\t" \
 268:c:\program files (x86)\atmel\studio\7.0\toolchain\avr8\avr8-gnu-toolchain\avr\include\avr\wdt.h ****     : /*no output */ \
 269:c:\program files (x86)\atmel\studio\7.0\toolchain\avr8\avr8-gnu-toolchain\avr\include\avr\wdt.h ****     : [CCPADDRESS] "I" (_SFR_IO_ADDR(CCP)), \
 270:c:\program files (x86)\atmel\studio\7.0\toolchain\avr8\avr8-gnu-toolchain\avr\include\avr\wdt.h ****       [SIGNATURE] "r" ((uint8_t)0xD8), \
 271:c:\program files (x86)\atmel\studio\7.0\toolchain\avr8\avr8-gnu-toolchain\avr\include\avr\wdt.h ****       [WDTREG] "I" (_SFR_IO_ADDR(_WD_CONTROL_REG)), \
 272:c:\program files (x86)\atmel\studio\7.0\toolchain\avr8\avr8-gnu-toolchain\avr\include\avr\wdt.h ****       [TEMP_WD] "d" (temp_wd), \
 273:c:\program files (x86)\atmel\studio\7.0\toolchain\avr8\avr8-gnu-toolchain\avr\include\avr\wdt.h ****       [WDVALUE] "n" (1 << WDE) \
 274:c:\program files (x86)\atmel\studio\7.0\toolchain\avr8\avr8-gnu-toolchain\avr\include\avr\wdt.h ****     : "r16" \
 275:c:\program files (x86)\atmel\studio\7.0\toolchain\avr8\avr8-gnu-toolchain\avr\include\avr\wdt.h **** ); \
 276:c:\program files (x86)\atmel\studio\7.0\toolchain\avr8\avr8-gnu-toolchain\avr\include\avr\wdt.h **** }while(0)
 277:c:\program files (x86)\atmel\studio\7.0\toolchain\avr8\avr8-gnu-toolchain\avr\include\avr\wdt.h **** 
 278:c:\program files (x86)\atmel\studio\7.0\toolchain\avr8\avr8-gnu-toolchain\avr\include\avr\wdt.h **** #elif defined(CCP)
 279:c:\program files (x86)\atmel\studio\7.0\toolchain\avr8\avr8-gnu-toolchain\avr\include\avr\wdt.h **** 
 280:c:\program files (x86)\atmel\studio\7.0\toolchain\avr8\avr8-gnu-toolchain\avr\include\avr\wdt.h **** static __inline__
 281:c:\program files (x86)\atmel\studio\7.0\toolchain\avr8\avr8-gnu-toolchain\avr\include\avr\wdt.h **** __attribute__ ((__always_inline__))
 282:c:\program files (x86)\atmel\studio\7.0\toolchain\avr8\avr8-gnu-toolchain\avr\include\avr\wdt.h **** void wdt_enable (const uint8_t value)
 283:c:\program files (x86)\atmel\studio\7.0\toolchain\avr8\avr8-gnu-toolchain\avr\include\avr\wdt.h **** {
 284:c:\program files (x86)\atmel\studio\7.0\toolchain\avr8\avr8-gnu-toolchain\avr\include\avr\wdt.h **** 	if (!_SFR_IO_REG_P (CCP) && !_SFR_IO_REG_P (_WD_CONTROL_REG))
 285:c:\program files (x86)\atmel\studio\7.0\toolchain\avr8\avr8-gnu-toolchain\avr\include\avr\wdt.h **** 	{
 286:c:\program files (x86)\atmel\studio\7.0\toolchain\avr8\avr8-gnu-toolchain\avr\include\avr\wdt.h **** 		__asm__ __volatile__ (
 287:c:\program files (x86)\atmel\studio\7.0\toolchain\avr8\avr8-gnu-toolchain\avr\include\avr\wdt.h **** 			"in __tmp_reg__,__SREG__" "\n\t"
 288:c:\program files (x86)\atmel\studio\7.0\toolchain\avr8\avr8-gnu-toolchain\avr\include\avr\wdt.h **** 			"cli" "\n\t"
 289:c:\program files (x86)\atmel\studio\7.0\toolchain\avr8\avr8-gnu-toolchain\avr\include\avr\wdt.h **** 			"wdr" "\n\t"
 290:c:\program files (x86)\atmel\studio\7.0\toolchain\avr8\avr8-gnu-toolchain\avr\include\avr\wdt.h **** 			"sts %[CCPADDRESS],%[SIGNATURE]" "\n\t"
 291:c:\program files (x86)\atmel\studio\7.0\toolchain\avr8\avr8-gnu-toolchain\avr\include\avr\wdt.h **** 			"sts %[WDTREG],%[WDVALUE]" "\n\t"
 292:c:\program files (x86)\atmel\studio\7.0\toolchain\avr8\avr8-gnu-toolchain\avr\include\avr\wdt.h **** 			"out __SREG__,__tmp_reg__" "\n\t"
 293:c:\program files (x86)\atmel\studio\7.0\toolchain\avr8\avr8-gnu-toolchain\avr\include\avr\wdt.h **** 			: /* no outputs */
 294:c:\program files (x86)\atmel\studio\7.0\toolchain\avr8\avr8-gnu-toolchain\avr\include\avr\wdt.h **** 			: [CCPADDRESS] "n" (_SFR_MEM_ADDR(CCP)),
 295:c:\program files (x86)\atmel\studio\7.0\toolchain\avr8\avr8-gnu-toolchain\avr\include\avr\wdt.h **** 			[SIGNATURE] "r" ((uint8_t)0xD8),
 296:c:\program files (x86)\atmel\studio\7.0\toolchain\avr8\avr8-gnu-toolchain\avr\include\avr\wdt.h **** 			[WDTREG] "n" (_SFR_MEM_ADDR(_WD_CONTROL_REG)),
 297:c:\program files (x86)\atmel\studio\7.0\toolchain\avr8\avr8-gnu-toolchain\avr\include\avr\wdt.h **** 			[WDVALUE] "r" ((uint8_t)((value & 0x08 ? _WD_PS3_MASK : 0x00)
 298:c:\program files (x86)\atmel\studio\7.0\toolchain\avr8\avr8-gnu-toolchain\avr\include\avr\wdt.h **** 				| _BV(WDE) | (value & 0x07) ))
 299:c:\program files (x86)\atmel\studio\7.0\toolchain\avr8\avr8-gnu-toolchain\avr\include\avr\wdt.h **** 			: "r0"
 300:c:\program files (x86)\atmel\studio\7.0\toolchain\avr8\avr8-gnu-toolchain\avr\include\avr\wdt.h **** 			);
 301:c:\program files (x86)\atmel\studio\7.0\toolchain\avr8\avr8-gnu-toolchain\avr\include\avr\wdt.h **** 	}
 302:c:\program files (x86)\atmel\studio\7.0\toolchain\avr8\avr8-gnu-toolchain\avr\include\avr\wdt.h **** 	else if (!_SFR_IO_REG_P (CCP) && _SFR_IO_REG_P (_WD_CONTROL_REG))
 303:c:\program files (x86)\atmel\studio\7.0\toolchain\avr8\avr8-gnu-toolchain\avr\include\avr\wdt.h **** 	{
 304:c:\program files (x86)\atmel\studio\7.0\toolchain\avr8\avr8-gnu-toolchain\avr\include\avr\wdt.h **** 		__asm__ __volatile__ (
 305:c:\program files (x86)\atmel\studio\7.0\toolchain\avr8\avr8-gnu-toolchain\avr\include\avr\wdt.h **** 			"in __tmp_reg__,__SREG__" "\n\t"
 306:c:\program files (x86)\atmel\studio\7.0\toolchain\avr8\avr8-gnu-toolchain\avr\include\avr\wdt.h **** 			"cli" "\n\t"
 307:c:\program files (x86)\atmel\studio\7.0\toolchain\avr8\avr8-gnu-toolchain\avr\include\avr\wdt.h **** 			"wdr" "\n\t"
 308:c:\program files (x86)\atmel\studio\7.0\toolchain\avr8\avr8-gnu-toolchain\avr\include\avr\wdt.h **** 			"sts %[CCPADDRESS],%[SIGNATURE]" "\n\t"
 309:c:\program files (x86)\atmel\studio\7.0\toolchain\avr8\avr8-gnu-toolchain\avr\include\avr\wdt.h **** 			"out %[WDTREG],%[WDVALUE]" "\n\t"
 310:c:\program files (x86)\atmel\studio\7.0\toolchain\avr8\avr8-gnu-toolchain\avr\include\avr\wdt.h **** 			"out __SREG__,__tmp_reg__" "\n\t"
 311:c:\program files (x86)\atmel\studio\7.0\toolchain\avr8\avr8-gnu-toolchain\avr\include\avr\wdt.h **** 			: /* no outputs */
 312:c:\program files (x86)\atmel\studio\7.0\toolchain\avr8\avr8-gnu-toolchain\avr\include\avr\wdt.h **** 			: [CCPADDRESS] "n" (_SFR_MEM_ADDR(CCP)),
 313:c:\program files (x86)\atmel\studio\7.0\toolchain\avr8\avr8-gnu-toolchain\avr\include\avr\wdt.h **** 			[SIGNATURE] "r" ((uint8_t)0xD8),
 314:c:\program files (x86)\atmel\studio\7.0\toolchain\avr8\avr8-gnu-toolchain\avr\include\avr\wdt.h **** 			[WDTREG] "I" (_SFR_IO_ADDR(_WD_CONTROL_REG)),
 315:c:\program files (x86)\atmel\studio\7.0\toolchain\avr8\avr8-gnu-toolchain\avr\include\avr\wdt.h **** 			[WDVALUE] "r" ((uint8_t)((value & 0x08 ? _WD_PS3_MASK : 0x00)
 316:c:\program files (x86)\atmel\studio\7.0\toolchain\avr8\avr8-gnu-toolchain\avr\include\avr\wdt.h **** 				| _BV(WDE) | (value & 0x07) ))
 317:c:\program files (x86)\atmel\studio\7.0\toolchain\avr8\avr8-gnu-toolchain\avr\include\avr\wdt.h **** 			: "r0"
 318:c:\program files (x86)\atmel\studio\7.0\toolchain\avr8\avr8-gnu-toolchain\avr\include\avr\wdt.h **** 			);
 319:c:\program files (x86)\atmel\studio\7.0\toolchain\avr8\avr8-gnu-toolchain\avr\include\avr\wdt.h **** 	}
 320:c:\program files (x86)\atmel\studio\7.0\toolchain\avr8\avr8-gnu-toolchain\avr\include\avr\wdt.h **** 	else if (_SFR_IO_REG_P (CCP) && !_SFR_IO_REG_P (_WD_CONTROL_REG))
 321:c:\program files (x86)\atmel\studio\7.0\toolchain\avr8\avr8-gnu-toolchain\avr\include\avr\wdt.h **** 	{
 322:c:\program files (x86)\atmel\studio\7.0\toolchain\avr8\avr8-gnu-toolchain\avr\include\avr\wdt.h **** 		__asm__ __volatile__ (
 323:c:\program files (x86)\atmel\studio\7.0\toolchain\avr8\avr8-gnu-toolchain\avr\include\avr\wdt.h **** 			"in __tmp_reg__,__SREG__" "\n\t"
 324:c:\program files (x86)\atmel\studio\7.0\toolchain\avr8\avr8-gnu-toolchain\avr\include\avr\wdt.h **** 			"cli" "\n\t"
 325:c:\program files (x86)\atmel\studio\7.0\toolchain\avr8\avr8-gnu-toolchain\avr\include\avr\wdt.h **** 			"wdr" "\n\t"
 326:c:\program files (x86)\atmel\studio\7.0\toolchain\avr8\avr8-gnu-toolchain\avr\include\avr\wdt.h **** 			"out %[CCPADDRESS],%[SIGNATURE]" "\n\t"
 327:c:\program files (x86)\atmel\studio\7.0\toolchain\avr8\avr8-gnu-toolchain\avr\include\avr\wdt.h **** 			"sts %[WDTREG],%[WDVALUE]" "\n\t"
 328:c:\program files (x86)\atmel\studio\7.0\toolchain\avr8\avr8-gnu-toolchain\avr\include\avr\wdt.h **** 			"out __SREG__,__tmp_reg__" "\n\t"
 329:c:\program files (x86)\atmel\studio\7.0\toolchain\avr8\avr8-gnu-toolchain\avr\include\avr\wdt.h **** 			: /* no outputs */
 330:c:\program files (x86)\atmel\studio\7.0\toolchain\avr8\avr8-gnu-toolchain\avr\include\avr\wdt.h **** 			: [CCPADDRESS] "I" (_SFR_IO_ADDR(CCP)),
 331:c:\program files (x86)\atmel\studio\7.0\toolchain\avr8\avr8-gnu-toolchain\avr\include\avr\wdt.h **** 			[SIGNATURE] "r" ((uint8_t)0xD8),
 332:c:\program files (x86)\atmel\studio\7.0\toolchain\avr8\avr8-gnu-toolchain\avr\include\avr\wdt.h **** 			[WDTREG] "n" (_SFR_MEM_ADDR(_WD_CONTROL_REG)),
 333:c:\program files (x86)\atmel\studio\7.0\toolchain\avr8\avr8-gnu-toolchain\avr\include\avr\wdt.h **** 			[WDVALUE] "r" ((uint8_t)((value & 0x08 ? _WD_PS3_MASK : 0x00)
 334:c:\program files (x86)\atmel\studio\7.0\toolchain\avr8\avr8-gnu-toolchain\avr\include\avr\wdt.h **** 				| _BV(WDE) | (value & 0x07) ))
 335:c:\program files (x86)\atmel\studio\7.0\toolchain\avr8\avr8-gnu-toolchain\avr\include\avr\wdt.h **** 			: "r0"
 336:c:\program files (x86)\atmel\studio\7.0\toolchain\avr8\avr8-gnu-toolchain\avr\include\avr\wdt.h **** 			);
 337:c:\program files (x86)\atmel\studio\7.0\toolchain\avr8\avr8-gnu-toolchain\avr\include\avr\wdt.h **** 	}
 338:c:\program files (x86)\atmel\studio\7.0\toolchain\avr8\avr8-gnu-toolchain\avr\include\avr\wdt.h **** 	else
 339:c:\program files (x86)\atmel\studio\7.0\toolchain\avr8\avr8-gnu-toolchain\avr\include\avr\wdt.h ****  	{
 340:c:\program files (x86)\atmel\studio\7.0\toolchain\avr8\avr8-gnu-toolchain\avr\include\avr\wdt.h **** 		__asm__ __volatile__ (
 341:c:\program files (x86)\atmel\studio\7.0\toolchain\avr8\avr8-gnu-toolchain\avr\include\avr\wdt.h **** 			"in __tmp_reg__,__SREG__" "\n\t"
 342:c:\program files (x86)\atmel\studio\7.0\toolchain\avr8\avr8-gnu-toolchain\avr\include\avr\wdt.h **** 			"cli" "\n\t"
 343:c:\program files (x86)\atmel\studio\7.0\toolchain\avr8\avr8-gnu-toolchain\avr\include\avr\wdt.h **** 			"wdr" "\n\t"
 344:c:\program files (x86)\atmel\studio\7.0\toolchain\avr8\avr8-gnu-toolchain\avr\include\avr\wdt.h **** 			"out %[CCPADDRESS],%[SIGNATURE]" "\n\t"
 345:c:\program files (x86)\atmel\studio\7.0\toolchain\avr8\avr8-gnu-toolchain\avr\include\avr\wdt.h **** 			"out %[WDTREG],%[WDVALUE]" "\n\t"
 346:c:\program files (x86)\atmel\studio\7.0\toolchain\avr8\avr8-gnu-toolchain\avr\include\avr\wdt.h **** 			"out __SREG__,__tmp_reg__" "\n\t"
 347:c:\program files (x86)\atmel\studio\7.0\toolchain\avr8\avr8-gnu-toolchain\avr\include\avr\wdt.h **** 			: /* no outputs */
 348:c:\program files (x86)\atmel\studio\7.0\toolchain\avr8\avr8-gnu-toolchain\avr\include\avr\wdt.h **** 			: [CCPADDRESS] "I" (_SFR_IO_ADDR(CCP)),
 349:c:\program files (x86)\atmel\studio\7.0\toolchain\avr8\avr8-gnu-toolchain\avr\include\avr\wdt.h **** 			[SIGNATURE] "r" ((uint8_t)0xD8),
 350:c:\program files (x86)\atmel\studio\7.0\toolchain\avr8\avr8-gnu-toolchain\avr\include\avr\wdt.h **** 			[WDTREG] "I" (_SFR_IO_ADDR(_WD_CONTROL_REG)),
 351:c:\program files (x86)\atmel\studio\7.0\toolchain\avr8\avr8-gnu-toolchain\avr\include\avr\wdt.h **** 			[WDVALUE] "r" ((uint8_t)((value & 0x08 ? _WD_PS3_MASK : 0x00)
 352:c:\program files (x86)\atmel\studio\7.0\toolchain\avr8\avr8-gnu-toolchain\avr\include\avr\wdt.h **** 				| _BV(WDE) | (value & 0x07) ))
 353:c:\program files (x86)\atmel\studio\7.0\toolchain\avr8\avr8-gnu-toolchain\avr\include\avr\wdt.h **** 			: "r0"
 354:c:\program files (x86)\atmel\studio\7.0\toolchain\avr8\avr8-gnu-toolchain\avr\include\avr\wdt.h **** 			);
 355:c:\program files (x86)\atmel\studio\7.0\toolchain\avr8\avr8-gnu-toolchain\avr\include\avr\wdt.h **** 	}
 356:c:\program files (x86)\atmel\studio\7.0\toolchain\avr8\avr8-gnu-toolchain\avr\include\avr\wdt.h **** }
 357:c:\program files (x86)\atmel\studio\7.0\toolchain\avr8\avr8-gnu-toolchain\avr\include\avr\wdt.h **** 
 358:c:\program files (x86)\atmel\studio\7.0\toolchain\avr8\avr8-gnu-toolchain\avr\include\avr\wdt.h **** static __inline__
 359:c:\program files (x86)\atmel\studio\7.0\toolchain\avr8\avr8-gnu-toolchain\avr\include\avr\wdt.h **** __attribute__ ((__always_inline__))
 360:c:\program files (x86)\atmel\studio\7.0\toolchain\avr8\avr8-gnu-toolchain\avr\include\avr\wdt.h **** void wdt_disable (void)
 361:c:\program files (x86)\atmel\studio\7.0\toolchain\avr8\avr8-gnu-toolchain\avr\include\avr\wdt.h **** {
 362:c:\program files (x86)\atmel\studio\7.0\toolchain\avr8\avr8-gnu-toolchain\avr\include\avr\wdt.h **** 	if (!_SFR_IO_REG_P (CCP) && !_SFR_IO_REG_P(_WD_CONTROL_REG))
 363:c:\program files (x86)\atmel\studio\7.0\toolchain\avr8\avr8-gnu-toolchain\avr\include\avr\wdt.h **** 	{
 364:c:\program files (x86)\atmel\studio\7.0\toolchain\avr8\avr8-gnu-toolchain\avr\include\avr\wdt.h ****         uint8_t temp_wd;
 365:c:\program files (x86)\atmel\studio\7.0\toolchain\avr8\avr8-gnu-toolchain\avr\include\avr\wdt.h ****         __asm__ __volatile__ (
 366:c:\program files (x86)\atmel\studio\7.0\toolchain\avr8\avr8-gnu-toolchain\avr\include\avr\wdt.h **** 				"in __tmp_reg__,__SREG__" "\n\t"
 367:c:\program files (x86)\atmel\studio\7.0\toolchain\avr8\avr8-gnu-toolchain\avr\include\avr\wdt.h **** 				"cli" "\n\t"
 368:c:\program files (x86)\atmel\studio\7.0\toolchain\avr8\avr8-gnu-toolchain\avr\include\avr\wdt.h **** 				"wdr" "\n\t"
 369:c:\program files (x86)\atmel\studio\7.0\toolchain\avr8\avr8-gnu-toolchain\avr\include\avr\wdt.h **** 				"sts %[CCPADDRESS],%[SIGNATURE]" "\n\t"
 370:c:\program files (x86)\atmel\studio\7.0\toolchain\avr8\avr8-gnu-toolchain\avr\include\avr\wdt.h **** 				"lds %[TEMP_WD],%[WDTREG]" "\n\t"
 371:c:\program files (x86)\atmel\studio\7.0\toolchain\avr8\avr8-gnu-toolchain\avr\include\avr\wdt.h **** 				"cbr %[TEMP_WD],%[WDVALUE]" "\n\t"
 372:c:\program files (x86)\atmel\studio\7.0\toolchain\avr8\avr8-gnu-toolchain\avr\include\avr\wdt.h **** 				"sts %[WDTREG],%[TEMP_WD]" "\n\t"
 373:c:\program files (x86)\atmel\studio\7.0\toolchain\avr8\avr8-gnu-toolchain\avr\include\avr\wdt.h **** 				"out __SREG__,__tmp_reg__" "\n\t"
 374:c:\program files (x86)\atmel\studio\7.0\toolchain\avr8\avr8-gnu-toolchain\avr\include\avr\wdt.h **** 				: /*no output */
 375:c:\program files (x86)\atmel\studio\7.0\toolchain\avr8\avr8-gnu-toolchain\avr\include\avr\wdt.h **** 				: [CCPADDRESS] "n" (_SFR_MEM_ADDR(CCP)),
 376:c:\program files (x86)\atmel\studio\7.0\toolchain\avr8\avr8-gnu-toolchain\avr\include\avr\wdt.h **** 				[SIGNATURE] "r" ((uint8_t)0xD8),
 377:c:\program files (x86)\atmel\studio\7.0\toolchain\avr8\avr8-gnu-toolchain\avr\include\avr\wdt.h **** 				[WDTREG] "n" (_SFR_MEM_ADDR(_WD_CONTROL_REG)),
 378:c:\program files (x86)\atmel\studio\7.0\toolchain\avr8\avr8-gnu-toolchain\avr\include\avr\wdt.h **** 				[TEMP_WD] "d" (temp_wd),
 379:c:\program files (x86)\atmel\studio\7.0\toolchain\avr8\avr8-gnu-toolchain\avr\include\avr\wdt.h **** 				[WDVALUE] "n" (1 << WDE)
 380:c:\program files (x86)\atmel\studio\7.0\toolchain\avr8\avr8-gnu-toolchain\avr\include\avr\wdt.h **** 				: "r0"
 381:c:\program files (x86)\atmel\studio\7.0\toolchain\avr8\avr8-gnu-toolchain\avr\include\avr\wdt.h **** 				);
 382:c:\program files (x86)\atmel\studio\7.0\toolchain\avr8\avr8-gnu-toolchain\avr\include\avr\wdt.h **** 	}
 383:c:\program files (x86)\atmel\studio\7.0\toolchain\avr8\avr8-gnu-toolchain\avr\include\avr\wdt.h **** 	else if (!_SFR_IO_REG_P (CCP) && _SFR_IO_REG_P(_WD_CONTROL_REG))
 384:c:\program files (x86)\atmel\studio\7.0\toolchain\avr8\avr8-gnu-toolchain\avr\include\avr\wdt.h **** 	{
 385:c:\program files (x86)\atmel\studio\7.0\toolchain\avr8\avr8-gnu-toolchain\avr\include\avr\wdt.h ****         uint8_t temp_wd;
 386:c:\program files (x86)\atmel\studio\7.0\toolchain\avr8\avr8-gnu-toolchain\avr\include\avr\wdt.h ****         __asm__ __volatile__ (
 387:c:\program files (x86)\atmel\studio\7.0\toolchain\avr8\avr8-gnu-toolchain\avr\include\avr\wdt.h **** 				"in __tmp_reg__,__SREG__" "\n\t"
 388:c:\program files (x86)\atmel\studio\7.0\toolchain\avr8\avr8-gnu-toolchain\avr\include\avr\wdt.h **** 				"cli" "\n\t"
 389:c:\program files (x86)\atmel\studio\7.0\toolchain\avr8\avr8-gnu-toolchain\avr\include\avr\wdt.h **** 				"wdr" "\n\t"
 390:c:\program files (x86)\atmel\studio\7.0\toolchain\avr8\avr8-gnu-toolchain\avr\include\avr\wdt.h **** 				"sts %[CCPADDRESS],%[SIGNATURE]" "\n\t"
 391:c:\program files (x86)\atmel\studio\7.0\toolchain\avr8\avr8-gnu-toolchain\avr\include\avr\wdt.h **** 				"in %[TEMP_WD],%[WDTREG]" "\n\t"
 392:c:\program files (x86)\atmel\studio\7.0\toolchain\avr8\avr8-gnu-toolchain\avr\include\avr\wdt.h **** 				"cbr %[TEMP_WD],%[WDVALUE]" "\n\t"
 393:c:\program files (x86)\atmel\studio\7.0\toolchain\avr8\avr8-gnu-toolchain\avr\include\avr\wdt.h **** 				"out %[WDTREG],%[TEMP_WD]" "\n\t"
 394:c:\program files (x86)\atmel\studio\7.0\toolchain\avr8\avr8-gnu-toolchain\avr\include\avr\wdt.h **** 				"out __SREG__,__tmp_reg__" "\n\t"
 395:c:\program files (x86)\atmel\studio\7.0\toolchain\avr8\avr8-gnu-toolchain\avr\include\avr\wdt.h **** 				: /*no output */
 396:c:\program files (x86)\atmel\studio\7.0\toolchain\avr8\avr8-gnu-toolchain\avr\include\avr\wdt.h **** 				: [CCPADDRESS] "n" (_SFR_MEM_ADDR(CCP)),
 397:c:\program files (x86)\atmel\studio\7.0\toolchain\avr8\avr8-gnu-toolchain\avr\include\avr\wdt.h **** 				[SIGNATURE] "r" ((uint8_t)0xD8),
 398:c:\program files (x86)\atmel\studio\7.0\toolchain\avr8\avr8-gnu-toolchain\avr\include\avr\wdt.h **** 				[WDTREG] "I" (_SFR_IO_ADDR(_WD_CONTROL_REG)),
 399:c:\program files (x86)\atmel\studio\7.0\toolchain\avr8\avr8-gnu-toolchain\avr\include\avr\wdt.h **** 				[TEMP_WD] "d" (temp_wd),
 400:c:\program files (x86)\atmel\studio\7.0\toolchain\avr8\avr8-gnu-toolchain\avr\include\avr\wdt.h **** 				[WDVALUE] "n" (1 << WDE)
 401:c:\program files (x86)\atmel\studio\7.0\toolchain\avr8\avr8-gnu-toolchain\avr\include\avr\wdt.h **** 				: "r0"
 402:c:\program files (x86)\atmel\studio\7.0\toolchain\avr8\avr8-gnu-toolchain\avr\include\avr\wdt.h **** 				);
 403:c:\program files (x86)\atmel\studio\7.0\toolchain\avr8\avr8-gnu-toolchain\avr\include\avr\wdt.h **** 	}
 404:c:\program files (x86)\atmel\studio\7.0\toolchain\avr8\avr8-gnu-toolchain\avr\include\avr\wdt.h **** 	else if (_SFR_IO_REG_P (CCP) && !_SFR_IO_REG_P(_WD_CONTROL_REG))
 405:c:\program files (x86)\atmel\studio\7.0\toolchain\avr8\avr8-gnu-toolchain\avr\include\avr\wdt.h **** 	{
 406:c:\program files (x86)\atmel\studio\7.0\toolchain\avr8\avr8-gnu-toolchain\avr\include\avr\wdt.h ****         uint8_t temp_wd;
 407:c:\program files (x86)\atmel\studio\7.0\toolchain\avr8\avr8-gnu-toolchain\avr\include\avr\wdt.h ****         __asm__ __volatile__ (
 408:c:\program files (x86)\atmel\studio\7.0\toolchain\avr8\avr8-gnu-toolchain\avr\include\avr\wdt.h **** 				"in __tmp_reg__,__SREG__" "\n\t"
 409:c:\program files (x86)\atmel\studio\7.0\toolchain\avr8\avr8-gnu-toolchain\avr\include\avr\wdt.h **** 				"cli" "\n\t"
 410:c:\program files (x86)\atmel\studio\7.0\toolchain\avr8\avr8-gnu-toolchain\avr\include\avr\wdt.h **** 				"wdr" "\n\t"
 411:c:\program files (x86)\atmel\studio\7.0\toolchain\avr8\avr8-gnu-toolchain\avr\include\avr\wdt.h **** 				"out %[CCPADDRESS],%[SIGNATURE]" "\n\t"
 412:c:\program files (x86)\atmel\studio\7.0\toolchain\avr8\avr8-gnu-toolchain\avr\include\avr\wdt.h **** 				"lds %[TEMP_WD],%[WDTREG]" "\n\t"
 413:c:\program files (x86)\atmel\studio\7.0\toolchain\avr8\avr8-gnu-toolchain\avr\include\avr\wdt.h **** 				"cbr %[TEMP_WD],%[WDVALUE]" "\n\t"
 414:c:\program files (x86)\atmel\studio\7.0\toolchain\avr8\avr8-gnu-toolchain\avr\include\avr\wdt.h **** 				"sts %[WDTREG],%[TEMP_WD]" "\n\t"
 415:c:\program files (x86)\atmel\studio\7.0\toolchain\avr8\avr8-gnu-toolchain\avr\include\avr\wdt.h **** 				"out __SREG__,__tmp_reg__" "\n\t"
 416:c:\program files (x86)\atmel\studio\7.0\toolchain\avr8\avr8-gnu-toolchain\avr\include\avr\wdt.h **** 				: /*no output */
 417:c:\program files (x86)\atmel\studio\7.0\toolchain\avr8\avr8-gnu-toolchain\avr\include\avr\wdt.h **** 				: [CCPADDRESS] "I" (_SFR_IO_ADDR(CCP)),
 418:c:\program files (x86)\atmel\studio\7.0\toolchain\avr8\avr8-gnu-toolchain\avr\include\avr\wdt.h **** 				[SIGNATURE] "r" ((uint8_t)0xD8),
 419:c:\program files (x86)\atmel\studio\7.0\toolchain\avr8\avr8-gnu-toolchain\avr\include\avr\wdt.h **** 				[WDTREG] "n" (_SFR_MEM_ADDR(_WD_CONTROL_REG)),
 420:c:\program files (x86)\atmel\studio\7.0\toolchain\avr8\avr8-gnu-toolchain\avr\include\avr\wdt.h **** 				[TEMP_WD] "d" (temp_wd),
 421:c:\program files (x86)\atmel\studio\7.0\toolchain\avr8\avr8-gnu-toolchain\avr\include\avr\wdt.h **** 				[WDVALUE] "n" (1 << WDE)
 422:c:\program files (x86)\atmel\studio\7.0\toolchain\avr8\avr8-gnu-toolchain\avr\include\avr\wdt.h **** 				: "r0"
 423:c:\program files (x86)\atmel\studio\7.0\toolchain\avr8\avr8-gnu-toolchain\avr\include\avr\wdt.h **** 				);
 424:c:\program files (x86)\atmel\studio\7.0\toolchain\avr8\avr8-gnu-toolchain\avr\include\avr\wdt.h **** 	}
 425:c:\program files (x86)\atmel\studio\7.0\toolchain\avr8\avr8-gnu-toolchain\avr\include\avr\wdt.h **** 	else
 426:c:\program files (x86)\atmel\studio\7.0\toolchain\avr8\avr8-gnu-toolchain\avr\include\avr\wdt.h **** 	{
 427:c:\program files (x86)\atmel\studio\7.0\toolchain\avr8\avr8-gnu-toolchain\avr\include\avr\wdt.h ****         uint8_t temp_wd;
 428:c:\program files (x86)\atmel\studio\7.0\toolchain\avr8\avr8-gnu-toolchain\avr\include\avr\wdt.h ****         __asm__ __volatile__ (
 429:c:\program files (x86)\atmel\studio\7.0\toolchain\avr8\avr8-gnu-toolchain\avr\include\avr\wdt.h **** 				"in __tmp_reg__,__SREG__" "\n\t"
 430:c:\program files (x86)\atmel\studio\7.0\toolchain\avr8\avr8-gnu-toolchain\avr\include\avr\wdt.h **** 				"cli" "\n\t"
 431:c:\program files (x86)\atmel\studio\7.0\toolchain\avr8\avr8-gnu-toolchain\avr\include\avr\wdt.h **** 				"wdr" "\n\t"
 432:c:\program files (x86)\atmel\studio\7.0\toolchain\avr8\avr8-gnu-toolchain\avr\include\avr\wdt.h **** 				"out %[CCPADDRESS],%[SIGNATURE]" "\n\t"
 433:c:\program files (x86)\atmel\studio\7.0\toolchain\avr8\avr8-gnu-toolchain\avr\include\avr\wdt.h **** 				"in %[TEMP_WD],%[WDTREG]" "\n\t"
 434:c:\program files (x86)\atmel\studio\7.0\toolchain\avr8\avr8-gnu-toolchain\avr\include\avr\wdt.h **** 				"cbr %[TEMP_WD],%[WDVALUE]" "\n\t"
 435:c:\program files (x86)\atmel\studio\7.0\toolchain\avr8\avr8-gnu-toolchain\avr\include\avr\wdt.h **** 				"out %[WDTREG],%[TEMP_WD]" "\n\t"
 436:c:\program files (x86)\atmel\studio\7.0\toolchain\avr8\avr8-gnu-toolchain\avr\include\avr\wdt.h **** 				"out __SREG__,__tmp_reg__" "\n\t"
 437:c:\program files (x86)\atmel\studio\7.0\toolchain\avr8\avr8-gnu-toolchain\avr\include\avr\wdt.h **** 				: /*no output */
 438:c:\program files (x86)\atmel\studio\7.0\toolchain\avr8\avr8-gnu-toolchain\avr\include\avr\wdt.h **** 				: [CCPADDRESS] "I" (_SFR_IO_ADDR(CCP)),
 439:c:\program files (x86)\atmel\studio\7.0\toolchain\avr8\avr8-gnu-toolchain\avr\include\avr\wdt.h **** 				[SIGNATURE] "r" ((uint8_t)0xD8),
 440:c:\program files (x86)\atmel\studio\7.0\toolchain\avr8\avr8-gnu-toolchain\avr\include\avr\wdt.h **** 				[WDTREG] "I" (_SFR_IO_ADDR(_WD_CONTROL_REG)),
 441:c:\program files (x86)\atmel\studio\7.0\toolchain\avr8\avr8-gnu-toolchain\avr\include\avr\wdt.h **** 				[TEMP_WD] "d" (temp_wd),
 442:c:\program files (x86)\atmel\studio\7.0\toolchain\avr8\avr8-gnu-toolchain\avr\include\avr\wdt.h **** 				[WDVALUE] "n" (1 << WDE)
 443:c:\program files (x86)\atmel\studio\7.0\toolchain\avr8\avr8-gnu-toolchain\avr\include\avr\wdt.h **** 				: "r0"
 444:c:\program files (x86)\atmel\studio\7.0\toolchain\avr8\avr8-gnu-toolchain\avr\include\avr\wdt.h **** 				);
 445:c:\program files (x86)\atmel\studio\7.0\toolchain\avr8\avr8-gnu-toolchain\avr\include\avr\wdt.h **** 	}
 446:c:\program files (x86)\atmel\studio\7.0\toolchain\avr8\avr8-gnu-toolchain\avr\include\avr\wdt.h **** }
 447:c:\program files (x86)\atmel\studio\7.0\toolchain\avr8\avr8-gnu-toolchain\avr\include\avr\wdt.h **** 
 448:c:\program files (x86)\atmel\studio\7.0\toolchain\avr8\avr8-gnu-toolchain\avr\include\avr\wdt.h **** #else
 449:c:\program files (x86)\atmel\studio\7.0\toolchain\avr8\avr8-gnu-toolchain\avr\include\avr\wdt.h **** 
 450:c:\program files (x86)\atmel\studio\7.0\toolchain\avr8\avr8-gnu-toolchain\avr\include\avr\wdt.h **** static __inline__
 451:c:\program files (x86)\atmel\studio\7.0\toolchain\avr8\avr8-gnu-toolchain\avr\include\avr\wdt.h **** __attribute__ ((__always_inline__))
 452:c:\program files (x86)\atmel\studio\7.0\toolchain\avr8\avr8-gnu-toolchain\avr\include\avr\wdt.h **** void wdt_enable (const uint8_t value)
 453:c:\program files (x86)\atmel\studio\7.0\toolchain\avr8\avr8-gnu-toolchain\avr\include\avr\wdt.h **** {
 454:c:\program files (x86)\atmel\studio\7.0\toolchain\avr8\avr8-gnu-toolchain\avr\include\avr\wdt.h **** 	if (_SFR_IO_REG_P (_WD_CONTROL_REG))
 455:c:\program files (x86)\atmel\studio\7.0\toolchain\avr8\avr8-gnu-toolchain\avr\include\avr\wdt.h **** 	{
 456:c:\program files (x86)\atmel\studio\7.0\toolchain\avr8\avr8-gnu-toolchain\avr\include\avr\wdt.h **** 		__asm__ __volatile__ (
 457:c:\program files (x86)\atmel\studio\7.0\toolchain\avr8\avr8-gnu-toolchain\avr\include\avr\wdt.h **** 				"in __tmp_reg__,__SREG__" "\n\t"
 458:c:\program files (x86)\atmel\studio\7.0\toolchain\avr8\avr8-gnu-toolchain\avr\include\avr\wdt.h **** 				"cli" "\n\t"
 459:c:\program files (x86)\atmel\studio\7.0\toolchain\avr8\avr8-gnu-toolchain\avr\include\avr\wdt.h **** 				"wdr" "\n\t"
 460:c:\program files (x86)\atmel\studio\7.0\toolchain\avr8\avr8-gnu-toolchain\avr\include\avr\wdt.h **** 				"out %0, %1" "\n\t"
 461:c:\program files (x86)\atmel\studio\7.0\toolchain\avr8\avr8-gnu-toolchain\avr\include\avr\wdt.h **** 				"out __SREG__,__tmp_reg__" "\n\t"
 462:c:\program files (x86)\atmel\studio\7.0\toolchain\avr8\avr8-gnu-toolchain\avr\include\avr\wdt.h **** 				"out %0, %2" "\n \t"
 463:c:\program files (x86)\atmel\studio\7.0\toolchain\avr8\avr8-gnu-toolchain\avr\include\avr\wdt.h **** 				: /* no outputs */
 464:c:\program files (x86)\atmel\studio\7.0\toolchain\avr8\avr8-gnu-toolchain\avr\include\avr\wdt.h **** 				: "I" (_SFR_IO_ADDR(_WD_CONTROL_REG)),
 465:c:\program files (x86)\atmel\studio\7.0\toolchain\avr8\avr8-gnu-toolchain\avr\include\avr\wdt.h **** 				"r" ((uint8_t)(_BV(_WD_CHANGE_BIT) | _BV(WDE))),
 466:c:\program files (x86)\atmel\studio\7.0\toolchain\avr8\avr8-gnu-toolchain\avr\include\avr\wdt.h **** 				"r" ((uint8_t) ((value & 0x08 ? _WD_PS3_MASK : 0x00) |
 467:c:\program files (x86)\atmel\studio\7.0\toolchain\avr8\avr8-gnu-toolchain\avr\include\avr\wdt.h **** 						_BV(WDE) | (value & 0x07)) )
 468:c:\program files (x86)\atmel\studio\7.0\toolchain\avr8\avr8-gnu-toolchain\avr\include\avr\wdt.h **** 				: "r0"
 469:c:\program files (x86)\atmel\studio\7.0\toolchain\avr8\avr8-gnu-toolchain\avr\include\avr\wdt.h **** 		);
 470:c:\program files (x86)\atmel\studio\7.0\toolchain\avr8\avr8-gnu-toolchain\avr\include\avr\wdt.h **** 	}
 471:c:\program files (x86)\atmel\studio\7.0\toolchain\avr8\avr8-gnu-toolchain\avr\include\avr\wdt.h **** 	else
 472:c:\program files (x86)\atmel\studio\7.0\toolchain\avr8\avr8-gnu-toolchain\avr\include\avr\wdt.h **** 	{
 473:c:\program files (x86)\atmel\studio\7.0\toolchain\avr8\avr8-gnu-toolchain\avr\include\avr\wdt.h **** 		__asm__ __volatile__ (
 7346               		.loc 9 473 0
 7347 01fe 99E0      		ldi r25,lo8(9)
 7348 0200 88E1      		ldi r24,lo8(24)
 7349               	/* #APP */
 7350               	 ;  473 "c:\program files (x86)\atmel\studio\7.0\toolchain\avr8\avr8-gnu-toolchain\avr\include\avr\
 7351 0202 0FB6      		in __tmp_reg__,__SREG__
 7352 0204 F894      		cli
 7353 0206 A895      		wdr
 7354 0208 8093 6000 		sts 96, r24
 7355 020c 0FBE      		out __SREG__,__tmp_reg__
 7356 020e 9093 6000 		sts 96, r25
 7357               	 	
 7358               	 ;  0 "" 2
 7359               	/* #NOAPP */
 7360               	.L632:
 7361 0212 00C0      		rjmp .L632
 7362               	.LVL668:
 7363               	.L627:
 7364               	.LBE108:
 7365               	.LBE107:
  41:Proj_3E.c     **** 		Num_to_PC(10,m);String_to_PC(" = ");
 7366               		.loc 8 41 0
 7367 0214 80E0      		ldi r24,lo8(.LC14)
 7368 0216 90E0      		ldi r25,hi8(.LC14)
 7369 0218 0E94 0000 		call String_to_PC
 7370               	.LVL669:
 7371 021c 11E0      		ldi r17,lo8(1)
 7372 021e 00C0      		rjmp .L633
 7373               		.cfi_endproc
 7374               	.LFE70:
 7376               		.comm	PCMSK2_mem,1,1
 7377               		.comm	PCMSK0_mem,1,1
 7378               		.comm	User_response,1,1
 7379               	.global	watch_dog_reset
 7380               		.section .bss
 7383               	watch_dog_reset:
 7384 0000 00        		.zero	1
 7385               		.comm	test,2,1
 7386               		.comm	Mux_cntl_2,2,1
 7387               		.text
 7388               	.Letext0:
 7389               		.file 10 "c:\\program files (x86)\\atmel\\studio\\7.0\\toolchain\\avr8\\avr8-gnu-toolchain\\avr\\i
 7390               		.file 11 "../../../Resources_V12/Header_files/Basic_HW_setup.h"
 7391               		.file 12 "../../../Resources_V12/I2C_Subroutines/../../Resources_V12/Header_files/I_O_from switche
 7392               		.file 13 "c:\\program files (x86)\\atmel\\studio\\7.0\\toolchain\\avr8\\avr8-gnu-toolchain\\avr\\i
DEFINED SYMBOLS
                            *ABS*:00000000 Proj_3E.c
C:\Users\Mark\AppData\Local\Temp\ccw5ERz6.s:2      *ABS*:0000003e __SP_H__
C:\Users\Mark\AppData\Local\Temp\ccw5ERz6.s:3      *ABS*:0000003d __SP_L__
C:\Users\Mark\AppData\Local\Temp\ccw5ERz6.s:4      *ABS*:0000003f __SREG__
C:\Users\Mark\AppData\Local\Temp\ccw5ERz6.s:5      *ABS*:00000000 __tmp_reg__
C:\Users\Mark\AppData\Local\Temp\ccw5ERz6.s:6      *ABS*:00000001 __zero_reg__
C:\Users\Mark\AppData\Local\Temp\ccw5ERz6.s:12     .text:00000000 USART_init
C:\Users\Mark\AppData\Local\Temp\ccw5ERz6.s:46     .text:00000020 nop_delay
C:\Users\Mark\AppData\Local\Temp\ccw5ERz6.s:85     .text:00000034 Timer_T0_sub
C:\Users\Mark\AppData\Local\Temp\ccw5ERz6.s:111    .text:00000042 Timer_T0_10mS_delay_x_m
C:\Users\Mark\AppData\Local\Temp\ccw5ERz6.s:172    .text:0000006c Timer_T0_sub_with_interrupt
C:\Users\Mark\AppData\Local\Temp\ccw5ERz6.s:197    .text:0000007c T1_65ms_clock_tick
C:\Users\Mark\AppData\Local\Temp\ccw5ERz6.s:219    .text:0000008e Timer_T1_sub
C:\Users\Mark\AppData\Local\Temp\ccw5ERz6.s:251    .text:000000aa Timer_T1_sub_with_interrupt
C:\Users\Mark\AppData\Local\Temp\ccw5ERz6.s:278    .text:000000c2 Timer_T2_sub
C:\Users\Mark\AppData\Local\Temp\ccw5ERz6.s:305    .text:000000d6 waitforchar
C:\Users\Mark\AppData\Local\Temp\ccw5ERz6.s:327    .text:000000e0 waitforkeypress
C:\Users\Mark\AppData\Local\Temp\ccw5ERz6.s:348    .text:000000ee receiveChar
C:\Users\Mark\AppData\Local\Temp\ccw5ERz6.s:364    .text:000000f4 isCharavailable
C:\Users\Mark\AppData\Local\Temp\ccw5ERz6.s:415    .text:0000011e wait_for_return_key
C:\Users\Mark\AppData\Local\Temp\ccw5ERz6.s:461    .text:0000013a binUnwantedChars
C:\Users\Mark\AppData\Local\Temp\ccw5ERz6.s:490    .text:0000014c Char_to_PC
C:\Users\Mark\AppData\Local\Temp\ccw5ERz6.s:512    .text:0000015a String_to_PC
C:\Users\Mark\AppData\Local\Temp\ccw5ERz6.s:576    .text:00000184 newline
C:\Users\Mark\AppData\Local\Temp\ccw5ERz6.s:594    .text:0000018c binUnwantedChars_dot
C:\Users\Mark\AppData\Local\Temp\ccw5ERz6.s:629    .text:000001a6 SBtoAL
C:\Users\Mark\AppData\Local\Temp\ccw5ERz6.s:898    .text:000002d0 NumericString_to_PC
C:\Users\Mark\AppData\Local\Temp\ccw5ERz6.s:968    .text:00000304 Num_to_PC
C:\Users\Mark\AppData\Local\Temp\ccw5ERz6.s:1024   .text:0000033c decimal_digit
C:\Users\Mark\AppData\Local\Temp\ccw5ERz6.s:1048   .text:0000034a hex_digit
C:\Users\Mark\AppData\Local\Temp\ccw5ERz6.s:1087   .text:00000360 Exp_to_PC
C:\Users\Mark\AppData\Local\Temp\ccw5ERz6.s:1150   .text:000003a0 UBtoAL
C:\Users\Mark\AppData\Local\Temp\ccw5ERz6.s:1278   .text:00000418 Num_to_PC_U
C:\Users\Mark\AppData\Local\Temp\ccw5ERz6.s:1334   .text:00000450 Fraction_to_Binary_Unsigned
C:\Users\Mark\AppData\Local\Temp\ccw5ERz6.s:1595   .text:00000574 Binary_points_to_Decimal_Unsigned
C:\Users\Mark\AppData\Local\Temp\ccw5ERz6.s:2500   .text:00000a4a Fraction_to_Binary_Signed
C:\Users\Mark\AppData\Local\Temp\ccw5ERz6.s:2857   .text:00000bec Binary_points_to_Decimal_Signed
C:\Users\Mark\AppData\Local\Temp\ccw5ERz6.s:3784   .text:000010e2 Hex_from_KBD
C:\Users\Mark\AppData\Local\Temp\ccw5ERz6.s:3950   .text:00001190 Num_from_KBD_with_echo
C:\Users\Mark\AppData\Local\Temp\ccw5ERz6.s:4123   .text:0000123a Binary_to_PC
C:\Users\Mark\AppData\Local\Temp\ccw5ERz6.s:4331   .text:00001310 send_byte_with_Ack
C:\Users\Mark\AppData\Local\Temp\ccw5ERz6.s:4361   .text:00001324 send_byte_with_Nack
C:\Users\Mark\AppData\Local\Temp\ccw5ERz6.s:4390   .text:00001338 I2C_initiate_10mS_ref
C:\Users\Mark\AppData\Local\Temp\ccw5ERz6.s:4431   .text:00001368 I2C_Tx_float_display_control
C:\Users\Mark\AppData\Local\Temp\ccw5ERz6.s:4548   .text:000013ea I2C_Tx_initiate_mode
C:\Users\Mark\AppData\Local\Temp\ccw5ERz6.s:4594   .text:00001416 I2C_Tx
C:\Users\Mark\AppData\Local\Temp\ccw5ERz6.s:4720   .text:00001498 I2C_Tx_2_integers
C:\Users\Mark\AppData\Local\Temp\ccw5ERz6.s:4783   .text:000014c8 I2C_Tx_any_segment
C:\Users\Mark\AppData\Local\Temp\ccw5ERz6.s:4833   .text:000014ee I2C_Tx_any_segment_clear_all
C:\Users\Mark\AppData\Local\Temp\ccw5ERz6.s:4881   .text:00001516 I2C_Tx_8_byte_array
C:\Users\Mark\AppData\Local\Temp\ccw5ERz6.s:4906   .text:00001520 fraction_to_decimal_string
C:\Users\Mark\AppData\Local\Temp\ccw5ERz6.s:5080   .text:000015d6 I2C_Tx_BWops
C:\Users\Mark\AppData\Local\Temp\ccw5ERz6.s:5101   .text:000015e0 binary_char_from_KBD
C:\Users\Mark\AppData\Local\Temp\ccw5ERz6.s:5210   .text:0000164c I2C_Tx_OS_timer
C:\Users\Mark\AppData\Local\Temp\ccw5ERz6.s:5233   .text:00001656 I2C_Tx_8_byte_array_plus_mode
C:\Users\Mark\AppData\Local\Temp\ccw5ERz6.s:5246   .text:0000165a I2C_Tx_Clock_command
C:\Users\Mark\AppData\Local\Temp\ccw5ERz6.s:5295   .text:0000167e I2C_Tx_display_char
C:\Users\Mark\AppData\Local\Temp\ccw5ERz6.s:5345   .text:000016a4 I2C_Tx_2_chars
C:\Users\Mark\AppData\Local\Temp\ccw5ERz6.s:5400   .text:000016ca I2C_Tx_LED_dimmer
C:\Users\Mark\AppData\Local\Temp\ccw5ERz6.s:5452   .text:000016f6 I2C_Tx_long
C:\Users\Mark\AppData\Local\Temp\ccw5ERz6.s:5511   .text:00001726 I2C_Tx_real_num
C:\Users\Mark\AppData\Local\Temp\ccw5ERz6.s:5570   .text:00001756 I2C_Tx_float_num
C:\Users\Mark\AppData\Local\Temp\ccw5ERz6.s:5634   .text:0000178c I2C_Tx_Initiate_tables
C:\Users\Mark\AppData\Local\Temp\ccw5ERz6.s:5655   .text:00001796 I2C_Tx_Inc_tables
C:\Users\Mark\AppData\Local\Temp\ccw5ERz6.s:5680   .text:000017a6 I2C_Tx_dec_tables
C:\Users\Mark\AppData\Local\Temp\ccw5ERz6.s:5705   .text:000017b6 I2C_Tx_2URNs_from_IO
C:\Users\Mark\AppData\Local\Temp\ccw5ERz6.s:5726   .text:000017c0 I2C_Tx_accumulator_op
C:\Users\Mark\AppData\Local\Temp\ccw5ERz6.s:5811   .text:0000180a receive_byte_with_Ack
C:\Users\Mark\AppData\Local\Temp\ccw5ERz6.s:5837   .text:0000181e receive_byte_with_Nack
C:\Users\Mark\AppData\Local\Temp\ccw5ERz6.s:5863   .text:00001832 I2C_displayToNum
C:\Users\Mark\AppData\Local\Temp\ccw5ERz6.s:6000   .text:000018c6 Num_from_KBD
C:\Users\Mark\AppData\Local\Temp\ccw5ERz6.s:6107   .text:0000191a I2C_Rx_RN
C:\Users\Mark\AppData\Local\Temp\ccw5ERz6.s:6232   .text:0000199c I2C_Tx_Uarithmetic_OP
C:\Users\Mark\AppData\Local\Temp\ccw5ERz6.s:6328   .text:00001a0c Num_from_KBD_Local
C:\Users\Mark\AppData\Local\Temp\ccw5ERz6.s:6448   .text:00001a72 display_in_scientific_notation
C:\Users\Mark\AppData\Local\Temp\ccw5ERz6.s:6911   .text:00001ca8 Divide_and_round
C:\Users\Mark\AppData\Local\Temp\ccw5ERz6.s:7020   .text.startup:00000000 main
C:\Users\Mark\AppData\Local\Temp\ccw5ERz6.s:7383   .bss:00000000 watch_dog_reset
                            *COM*:00000001 PCMSK2_mem
                            *COM*:00000001 PCMSK0_mem
                            *COM*:00000001 User_response
                            *COM*:00000002 test
                            *COM*:00000002 Mux_cntl_2

UNDEFINED SYMBOLS
__divmodsi4
__udivmodsi4
__tablejump2__
__muluhisi3
eeprom_write_byte
eeprom_read_byte
__mulsi3
__do_copy_data
__do_clear_bss
